///////////////////////////////////////////////////////////////////////////////
//                                                                            /
// IAR C/C++ Compiler V8.10.3.10338/W32 for 8051        01/Dec/2017  14:33:30 /
// Copyright 2004-2011 IAR Systems AB.                                        /
//                                                                            /
//    Core               =  plain                                             /
//    Code model         =  banked                                            /
//    Data model         =  large                                             /
//    Calling convention =  xdata reentrant                                   /
//    Constant location  =  data_rom                                          /
//    Dptr setup         =  1,16                                              /
//    Source file        =  C:\Users\John\Desktop\Try_zigbee\ZStack-CC2530-2. /
//                          3.0-1.4.0\Projects\zstack\Samples\SampleApp\Sourc /
//                          e\EndDevice2SampleApp.c                           /
//    Command line       =  -f C:\Users\John\Desktop\Try_zigbee\ZStack-CC2530 /
//                          -2.3.0-1.4.0\Projects\zstack\Samples\SampleApp\CC /
//                          2530DB\..\..\..\Tools\CC2530DB\f8wCoord.cfg       /
//                          (-DCPU32MHZ -DROOT=__near_func                    /
//                          -DMAC_CFG_APP_PENDING_QUEUE=TRUE                  /
//                          -DZDO_COORDINATOR -DRTR_NWK -DBLINK_LEDS) -f      /
//                          C:\Users\John\Desktop\Try_zigbee\ZStack-CC2530-2. /
//                          3.0-1.4.0\Projects\zstack\Samples\SampleApp\CC253 /
//                          0DB\..\..\..\Tools\CC2530DB\f8wConfig.cfg         /
//                          (-DSECURE=0 -DZG_SECURE_DYNAMIC=0 -DREFLECTOR     /
//                          -DDEFAULT_CHANLIST=0x00000800                     /
//                          -DZDAPP_CONFIG_PAN_ID=0xFFF1                      /
//                          -DNWK_START_DELAY=100 -DEXTENDED_JOINING_RANDOM_M /
//                          ASK=0x007F -DBEACON_REQUEST_DELAY=100             /
//                          -DBEACON_REQ_DELAY_MASK=0x00FF                    /
//                          -DROUTE_EXPIRY_TIME=30 -DAPSC_ACK_WAIT_DURATION_P /
//                          OLLED=3000 -DNWK_INDIRECT_MSG_TIMEOUT=7           /
//                          -DMAX_RREQ_ENTRIES=8 -DAPSC_MAX_FRAME_RETRIES=3   /
//                          -DNWK_MAX_DATA_RETRIES=2                          /
//                          -DMAX_POLL_FAILURE_RETRIES=2 -DMAX_BCAST=9        /
//                          -DAPS_MAX_GROUPS=16 -DMAX_RTG_ENTRIES=40          /
//                          -DNWK_MAX_BINDING_ENTRIES=4                       /
//                          -DMAX_BINDING_CLUSTER_IDS=4                       /
//                          "-DDEFAULT_KEY={0x01, 0x03, 0x05, 0x07, 0x09,     /
//                          0x0B, 0x0D, 0x0F, 0x00, 0x02, 0x04, 0x06, 0x08,   /
//                          0x0A, 0x0C, 0x0D}" -DMAC_MAX_FRAME_SIZE=116       /
//                          "-DCONST=const __code" -DGENERIC=__generic        /
//                          -DRFD_RCVC_ALWAYS_ON=FALSE -DPOLL_RATE=1000       /
//                          -DQUEUED_POLL_RATE=100 -DRESPONSE_POLL_RATE=100)  /
//                          -DREJOIN_POLL_RATE=440 C:\Users\John\Desktop\Try_ /
//                          zigbee\ZStack-CC2530-2.3.0-1.4.0\Projects\zstack\ /
//                          Samples\SampleApp\Source\EndDevice2SampleApp.c    /
//                          -D ZIGBEEPRO -D ZTOOL_P1 -D xMT_TASK -D           /
//                          xMT_SYS_FUNC -D xMT_ZDO_FUNC -D                   /
//                          LCD_SUPPORTED=DEBUG -lC                           /
//                          C:\Users\John\Desktop\Try_zigbee\ZStack-CC2530-2. /
//                          3.0-1.4.0\Projects\zstack\Samples\SampleApp\CC253 /
//                          0DB\abc\List\ -lA C:\Users\John\Desktop\Try_zigbe /
//                          e\ZStack-CC2530-2.3.0-1.4.0\Projects\zstack\Sampl /
//                          es\SampleApp\CC2530DB\abc\List\ --diag_suppress   /
//                          Pe001,Pa010 -o C:\Users\John\Desktop\Try_zigbee\Z /
//                          Stack-CC2530-2.3.0-1.4.0\Projects\zstack\Samples\ /
//                          SampleApp\CC2530DB\abc\Obj\ -e --debug            /
//                          --core=plain --dptr=16,1 --data_model=large       /
//                          --code_model=banked --calling_convention=xdata_re /
//                          entrant --place_constants=data_rom                /
//                          --nr_virtual_regs 16 -I                           /
//                          C:\Users\John\Desktop\Try_zigbee\ZStack-CC2530-2. /
//                          3.0-1.4.0\Projects\zstack\Samples\SampleApp\CC253 /
//                          0DB\ -I C:\Users\John\Desktop\Try_zigbee\ZStack-C /
//                          C2530-2.3.0-1.4.0\Projects\zstack\Samples\SampleA /
//                          pp\CC2530DB\..\SOURCE\ -I                         /
//                          C:\Users\John\Desktop\Try_zigbee\ZStack-CC2530-2. /
//                          3.0-1.4.0\Projects\zstack\Samples\SampleApp\CC253 /
//                          0DB\..\..\..\ZMAIN\TI2530DB\ -I                   /
//                          C:\Users\John\Desktop\Try_zigbee\ZStack-CC2530-2. /
//                          3.0-1.4.0\Projects\zstack\Samples\SampleApp\CC253 /
//                          0DB\..\..\..\..\..\COMPONENTS\MT\ -I              /
//                          C:\Users\John\Desktop\Try_zigbee\ZStack-CC2530-2. /
//                          3.0-1.4.0\Projects\zstack\Samples\SampleApp\CC253 /
//                          0DB\..\..\..\..\..\COMPONENTS\HAL\INCLUDE\ -I     /
//                          C:\Users\John\Desktop\Try_zigbee\ZStack-CC2530-2. /
//                          3.0-1.4.0\Projects\zstack\Samples\SampleApp\CC253 /
//                          0DB\..\..\..\..\..\COMPONENTS\HAL\TARGET\CC2530EB /
//                          \ -I C:\Users\John\Desktop\Try_zigbee\ZStack-CC25 /
//                          30-2.3.0-1.4.0\Projects\zstack\Samples\SampleApp\ /
//                          CC2530DB\..\..\..\..\..\COMPONENTS\OSAL\MCU\CCSOC /
//                          \ -I C:\Users\John\Desktop\Try_zigbee\ZStack-CC25 /
//                          30-2.3.0-1.4.0\Projects\zstack\Samples\SampleApp\ /
//                          CC2530DB\..\..\..\..\..\COMPONENTS\OSAL\INCLUDE\  /
//                          -I C:\Users\John\Desktop\Try_zigbee\ZStack-CC2530 /
//                          -2.3.0-1.4.0\Projects\zstack\Samples\SampleApp\CC /
//                          2530DB\..\..\..\..\..\COMPONENTS\STACK\AF\ -I     /
//                          C:\Users\John\Desktop\Try_zigbee\ZStack-CC2530-2. /
//                          3.0-1.4.0\Projects\zstack\Samples\SampleApp\CC253 /
//                          0DB\..\..\..\..\..\COMPONENTS\STACK\NWK\ -I       /
//                          C:\Users\John\Desktop\Try_zigbee\ZStack-CC2530-2. /
//                          3.0-1.4.0\Projects\zstack\Samples\SampleApp\CC253 /
//                          0DB\..\..\..\..\..\COMPONENTS\STACK\SEC\ -I       /
//                          C:\Users\John\Desktop\Try_zigbee\ZStack-CC2530-2. /
//                          3.0-1.4.0\Projects\zstack\Samples\SampleApp\CC253 /
//                          0DB\..\..\..\..\..\COMPONENTS\STACK\SAPI\ -I      /
//                          C:\Users\John\Desktop\Try_zigbee\ZStack-CC2530-2. /
//                          3.0-1.4.0\Projects\zstack\Samples\SampleApp\CC253 /
//                          0DB\..\..\..\..\..\COMPONENTS\STACK\SYS\ -I       /
//                          C:\Users\John\Desktop\Try_zigbee\ZStack-CC2530-2. /
//                          3.0-1.4.0\Projects\zstack\Samples\SampleApp\CC253 /
//                          0DB\..\..\..\..\..\COMPONENTS\STACK\ZDO\ -I       /
//                          C:\Users\John\Desktop\Try_zigbee\ZStack-CC2530-2. /
//                          3.0-1.4.0\Projects\zstack\Samples\SampleApp\CC253 /
//                          0DB\..\..\..\..\..\COMPONENTS\ZMAC\F8W\ -I        /
//                          C:\Users\John\Desktop\Try_zigbee\ZStack-CC2530-2. /
//                          3.0-1.4.0\Projects\zstack\Samples\SampleApp\CC253 /
//                          0DB\..\..\..\..\..\COMPONENTS\ZMAC\ -I            /
//                          C:\Users\John\Desktop\Try_zigbee\ZStack-CC2530-2. /
//                          3.0-1.4.0\Projects\zstack\Samples\SampleApp\CC253 /
//                          0DB\..\..\..\..\..\COMPONENTS\SERVICES\SADDR\ -I  /
//                          C:\Users\John\Desktop\Try_zigbee\ZStack-CC2530-2. /
//                          3.0-1.4.0\Projects\zstack\Samples\SampleApp\CC253 /
//                          0DB\..\..\..\..\..\COMPONENTS\SERVICES\SDATA\ -I  /
//                          C:\Users\John\Desktop\Try_zigbee\ZStack-CC2530-2. /
//                          3.0-1.4.0\Projects\zstack\Samples\SampleApp\CC253 /
//                          0DB\..\..\..\..\..\COMPONENTS\MAC\INCLUDE\ -I     /
//                          C:\Users\John\Desktop\Try_zigbee\ZStack-CC2530-2. /
//                          3.0-1.4.0\Projects\zstack\Samples\SampleApp\CC253 /
//                          0DB\..\..\..\..\..\COMPONENTS\MAC\HIGH_LEVEL\ -I  /
//                          C:\Users\John\Desktop\Try_zigbee\ZStack-CC2530-2. /
//                          3.0-1.4.0\Projects\zstack\Samples\SampleApp\CC253 /
//                          0DB\..\..\..\..\..\COMPONENTS\MAC\LOW_LEVEL\srf04 /
//                          \ -I C:\Users\John\Desktop\Try_zigbee\ZStack-CC25 /
//                          30-2.3.0-1.4.0\Projects\zstack\Samples\SampleApp\ /
//                          CC2530DB\..\..\..\..\..\COMPONENTS\MAC\LOW_LEVEL\ /
//                          srf04\SINGLE_CHIP\ -Ohz --require_prototypes      /
//    List file          =  C:\Users\John\Desktop\Try_zigbee\ZStack-CC2530-2. /
//                          3.0-1.4.0\Projects\zstack\Samples\SampleApp\CC253 /
//                          0DB\abc\List\EndDevice2SampleApp.s51              /
//                                                                            /
//                                                                            /
///////////////////////////////////////////////////////////////////////////////

        NAME EndDevice2SampleApp

        RTMODEL "__SystemLibrary", "CLib"
        RTMODEL "__calling_convention", "xdata_reentrant"
        RTMODEL "__code_model", "banked"
        RTMODEL "__core", "plain"
        RTMODEL "__data_model", "large"
        RTMODEL "__dptr_size", "16"
        RTMODEL "__extended_stack", "disabled"
        RTMODEL "__location_for_constants", "data"
        RTMODEL "__number_of_dptrs", "1"
        RTMODEL "__rt_version", "1"

        RSEG DOVERLAY:DATA:NOROOT(0)
        RSEG IOVERLAY:IDATA:NOROOT(0)
        RSEG ISTACK:IDATA:NOROOT(0)
        RSEG PSTACK:XDATA:NOROOT(0)
        RSEG XSTACK:XDATA:NOROOT(0)

        EXTERN ?ALLOC_XSTACK8
        EXTERN ?BANKED_ENTER_XDATA
        EXTERN ?BANKED_LEAVE_XDATA
        EXTERN ?BDISPATCH
        EXTERN ?BRET
        EXTERN ?DEALLOC_XSTACK8
        EXTERN ?MOVE_LONG8_XDATA_XDATA
        EXTERN ?PUSH_XSTACK_I_ONE
        EXTERN ?PUSH_XSTACK_I_THREE
        EXTERN ?PUSH_XSTACK_I_TWO
        EXTERN ?V0
        EXTERN ?XSP
        EXTERN ?XSTACK_DISP0_8
        EXTERN __INIT_XDATA_Z

        PUBLIC ??SampleApp_Init?relay
        FUNCTION ??SampleApp_Init?relay,0203H
        PUBLIC ??SampleApp_MessageMSGCB?relay
        FUNCTION ??SampleApp_MessageMSGCB?relay,0203H
        PUBLIC ??SampleApp_ProcessEvent?relay
        FUNCTION ??SampleApp_ProcessEvent?relay,0203H
        PUBLIC ??SampleApp_SendTheMessage?relay
        FUNCTION ??SampleApp_SendTheMessage?relay,0203H
        PUBLIC SampleAppDirection
        PUBLIC SampleAppState
        PUBLIC SampleApp_ClusterList
        PUBLIC SampleApp_Init
        FUNCTION SampleApp_Init,021203H
        ARGFRAME XSTACK, 0, STACK
        LOCFRAME XSTACK, 9, STACK
        PUBLIC SampleApp_MessageMSGCB
        FUNCTION SampleApp_MessageMSGCB,021203H
        ARGFRAME XSTACK, 0, STACK
        LOCFRAME XSTACK, 17, STACK
        PUBLIC SampleApp_NwkState
        PUBLIC SampleApp_ProcessEvent
        FUNCTION SampleApp_ProcessEvent,0203H
        ARGFRAME XSTACK, 0, STACK
        PUBLIC SampleApp_SendTheMessage
        FUNCTION SampleApp_SendTheMessage,021203H
        ARGFRAME XSTACK, 0, STACK
        LOCFRAME ISTACK, 2, STACK
        LOCFRAME XSTACK, 21, STACK
        PUBLIC SampleApp_SimpleDesc
        PUBLIC SampleApp_TaskID
        PUBLIC SampleApp_TransID
        PUBLIC SampleApp_epDesc
        PUBLIC devDstAddr
        
        CFI Names cfiNames0
        CFI StackFrame CFA_SP SP IDATA
        CFI StackFrame CFA_PSP16 PSP16 XDATA
        CFI StackFrame CFA_XSP16 XSP16 XDATA
        CFI StaticOverlayFrame CFA_IOVERLAY IOVERLAY
        CFI StaticOverlayFrame CFA_DOVERLAY DOVERLAY
        CFI Resource `PSW.CY`:1, `B.BR0`:1, `B.BR1`:1, `B.BR2`:1, `B.BR3`:1
        CFI Resource `B.BR4`:1, `B.BR5`:1, `B.BR6`:1, `B.BR7`:1, `VB.BR8`:1
        CFI Resource `VB.BR9`:1, `VB.BR10`:1, `VB.BR11`:1, `VB.BR12`:1
        CFI Resource `VB.BR13`:1, `VB.BR14`:1, `VB.BR15`:1, VB:8, B:8, A:8
        CFI Resource PSW:8, DPL0:8, DPH0:8, R0:8, R1:8, R2:8, R3:8, R4:8, R5:8
        CFI Resource R6:8, R7:8, V0:8, V1:8, V2:8, V3:8, V4:8, V5:8, V6:8, V7:8
        CFI Resource V8:8, V9:8, V10:8, V11:8, V12:8, V13:8, V14:8, V15:8, SP:8
        CFI Resource PSPH:8, PSPL:8, PSP16:16, XSPH:8, XSPL:8, XSP16:16
        CFI VirtualResource ?RET:24
        CFI Resource ?BRET_EXT:8
        CFI VirtualResource ?RET_HIGH:8, ?RET_LOW:8
        CFI ResourceParts PSP16 PSPH, PSPL
        CFI ResourceParts XSP16 XSPH, XSPL
        CFI ResourceParts ?RET ?BRET_EXT, ?RET_HIGH, ?RET_LOW
        CFI EndNames cfiNames0
        
        CFI Common cfiCommon0 Using cfiNames0
        CFI CodeAlign 1
        CFI DataAlign -1
        CFI ReturnAddress ?RET CODE
        CFI CFA_DOVERLAY Used
        CFI CFA_IOVERLAY Used
        CFI CFA_SP SP+-3
        CFI CFA_PSP16 PSP16+0
        CFI CFA_XSP16 XSP16+0
        CFI `PSW.CY` SameValue
        CFI `B.BR0` SameValue
        CFI `B.BR1` SameValue
        CFI `B.BR2` SameValue
        CFI `B.BR3` SameValue
        CFI `B.BR4` SameValue
        CFI `B.BR5` SameValue
        CFI `B.BR6` SameValue
        CFI `B.BR7` SameValue
        CFI `VB.BR8` SameValue
        CFI `VB.BR9` SameValue
        CFI `VB.BR10` SameValue
        CFI `VB.BR11` SameValue
        CFI `VB.BR12` SameValue
        CFI `VB.BR13` SameValue
        CFI `VB.BR14` SameValue
        CFI `VB.BR15` SameValue
        CFI VB SameValue
        CFI B Undefined
        CFI A Undefined
        CFI PSW SameValue
        CFI DPL0 SameValue
        CFI DPH0 SameValue
        CFI R0 Undefined
        CFI R1 Undefined
        CFI R2 Undefined
        CFI R3 Undefined
        CFI R4 Undefined
        CFI R5 Undefined
        CFI R6 SameValue
        CFI R7 SameValue
        CFI V0 SameValue
        CFI V1 SameValue
        CFI V2 SameValue
        CFI V3 SameValue
        CFI V4 SameValue
        CFI V5 SameValue
        CFI V6 SameValue
        CFI V7 SameValue
        CFI V8 SameValue
        CFI V9 SameValue
        CFI V10 SameValue
        CFI V11 SameValue
        CFI V12 SameValue
        CFI V13 SameValue
        CFI V14 SameValue
        CFI V15 SameValue
        CFI PSPH Undefined
        CFI PSPL Undefined
        CFI XSPH Undefined
        CFI XSPL Undefined
        CFI ?RET Concat
        CFI ?BRET_EXT Frame(CFA_SP, 3)
        CFI ?RET_HIGH Frame(CFA_SP, 2)
        CFI ?RET_LOW Frame(CFA_SP, 1)
        CFI EndCommon cfiCommon0
        
afRegister          SYMBOL "afRegister"
hal_car_configure   SYMBOL "hal_car_configure"
hal_track_configure SYMBOL "hal_track_configure"
AF_DataRequest      SYMBOL "AF_DataRequest"
osal_memset         SYMBOL "osal_memset"
osal_memcpy         SYMBOL "osal_memcpy"
HalLedBlink         SYMBOL "HalLedBlink"
??AF_DataRequest?relay SYMBOL "?relay", AF_DataRequest
??HalLedBlink?relay SYMBOL "?relay", HalLedBlink
??afRegister?relay  SYMBOL "?relay", afRegister
??hal_car_configure?relay SYMBOL "?relay", hal_car_configure
??hal_track_configure?relay SYMBOL "?relay", hal_track_configure
??osal_memcpy?relay SYMBOL "?relay", osal_memcpy
??osal_memset?relay SYMBOL "?relay", osal_memset
SampleApp_Init      SYMBOL "SampleApp_Init"
??SampleApp_Init?relay SYMBOL "?relay", SampleApp_Init
SampleApp_MessageMSGCB SYMBOL "SampleApp_MessageMSGCB"
??SampleApp_MessageMSGCB?relay SYMBOL "?relay", SampleApp_MessageMSGCB
SampleApp_ProcessEvent SYMBOL "SampleApp_ProcessEvent"
??SampleApp_ProcessEvent?relay SYMBOL "?relay", SampleApp_ProcessEvent
SampleApp_SendTheMessage SYMBOL "SampleApp_SendTheMessage"
??SampleApp_SendTheMessage?relay SYMBOL "?relay", SampleApp_SendTheMessage

        EXTERN afRegister
        FUNCTION afRegister,0202H
        ARGFRAME ISTACK, 0, STACK
        ARGFRAME PSTACK, 0, STACK
        ARGFRAME XSTACK, 9, STACK
        ARGFRAME IOVERLAY, 0, STATIC
        ARGFRAME DOVERLAY, 0, STATIC
        EXTERN hal_car_configure
        FUNCTION hal_car_configure,0202H
        ARGFRAME ISTACK, 0, STACK
        ARGFRAME PSTACK, 0, STACK
        ARGFRAME XSTACK, 9, STACK
        ARGFRAME IOVERLAY, 0, STATIC
        ARGFRAME DOVERLAY, 0, STATIC
        EXTERN hal_track_configure
        FUNCTION hal_track_configure,0202H
        ARGFRAME ISTACK, 0, STACK
        ARGFRAME PSTACK, 0, STACK
        ARGFRAME XSTACK, 9, STACK
        ARGFRAME IOVERLAY, 0, STATIC
        ARGFRAME DOVERLAY, 0, STATIC
        EXTERN AF_DataRequest
        FUNCTION AF_DataRequest,0202H
        ARGFRAME ISTACK, 0, STACK
        ARGFRAME PSTACK, 0, STACK
        ARGFRAME XSTACK, 21, STACK
        ARGFRAME IOVERLAY, 0, STATIC
        ARGFRAME DOVERLAY, 0, STATIC
        EXTERN osal_memset
        FUNCTION osal_memset,0202H
        ARGFRAME ISTACK, 0, STACK
        ARGFRAME PSTACK, 0, STACK
        ARGFRAME XSTACK, 14, STACK
        ARGFRAME IOVERLAY, 0, STATIC
        ARGFRAME DOVERLAY, 0, STATIC
        EXTERN osal_memcpy
        FUNCTION osal_memcpy,0202H
        ARGFRAME ISTACK, 0, STACK
        ARGFRAME PSTACK, 0, STACK
        ARGFRAME XSTACK, 17, STACK
        ARGFRAME IOVERLAY, 0, STATIC
        ARGFRAME DOVERLAY, 0, STATIC
        EXTERN HalLedBlink
        FUNCTION HalLedBlink,0202H
        ARGFRAME ISTACK, 0, STACK
        ARGFRAME PSTACK, 0, STACK
        ARGFRAME XSTACK, 14, STACK
        ARGFRAME IOVERLAY, 0, STATIC
        ARGFRAME DOVERLAY, 0, STATIC
        EXTERN ??AF_DataRequest?relay
        FUNCTION ??AF_DataRequest?relay,00H
        EXTERN ??HalLedBlink?relay
        FUNCTION ??HalLedBlink?relay,00H
        EXTERN ??afRegister?relay
        FUNCTION ??afRegister?relay,00H
        EXTERN ??hal_car_configure?relay
        FUNCTION ??hal_car_configure?relay,00H
        EXTERN ??hal_track_configure?relay
        FUNCTION ??hal_track_configure?relay,00H
        EXTERN ??osal_memcpy?relay
        FUNCTION ??osal_memcpy?relay,00H
        EXTERN ??osal_memset?relay
        FUNCTION ??osal_memset?relay,00H

// C:\Users\John\Desktop\Try_zigbee\ZStack-CC2530-2.3.0-1.4.0\Projects\zstack\Samples\SampleApp\Source\EndDevice2SampleApp.c
//    1 /*********************************************************************
//    2  * INCLUDES
//    3  */
//    4 #include "OSAL.h"
//    5 #include "ZGlobals.h"
//    6 #include "AF.h"
//    7 #include "aps_groups.h"
//    8 #include "ZDApp.h"
//    9 
//   10 #include "SampleApp.h"

        RSEG XDATA_Z:XDATA:NOROOT(0)
        DATA8
// afAddrType_t devDstAddr
devDstAddr:
        DS 12
        REQUIRE __INIT_XDATA_Z

        RSEG XDATA_Z:XDATA:NOROOT(0)
        DATA8
// uint8 SampleApp_TaskID
SampleApp_TaskID:
        DS 1
        REQUIRE __INIT_XDATA_Z

        RSEG XDATA_Z:XDATA:NOROOT(0)
        DATA8
// uint8 SampleApp_TransID
SampleApp_TransID:
        DS 1
        REQUIRE __INIT_XDATA_Z

        RSEG XDATA_Z:XDATA:NOROOT(0)
        DATA8
// uint8 SampleAppDirection
SampleAppDirection:
        DS 1
        REQUIRE __INIT_XDATA_Z

        RSEG XDATA_Z:XDATA:NOROOT(0)
        DATA8
// uint8 SampleAppState
SampleAppState:
        DS 1
        REQUIRE __INIT_XDATA_Z
//   11 #include "SampleAppHw.h"
//   12 
//   13 #include "OnBoard.h"
//   14 
//   15 /* HAL */
//   16 #include "hal_car.h"
//   17 #include "hal_track.h"
//   18 #include "hal_led.h"
//   19 
//   20 /*********************************************************************
//   21  * MACROS
//   22  */
//   23 
//   24 /*********************************************************************
//   25  * CONSTANTS
//   26  */
//   27 
//   28 /*********************************************************************
//   29  * TYPEDEFS
//   30  */

        RSEG XDATA_ROM_C:CONST:REORDER:NOROOT(0)
        DATA16
//   31 const cId_t SampleApp_ClusterList[SAMPLEAPP_MAX_CLUSTERS] =
SampleApp_ClusterList:
        DW 1
//   32 {
//   33   SAMPLEAPP_CLUSTERID
//   34 };
//   35                         

        RSEG XDATA_ROM_C:CONST:REORDER:NOROOT(0)
        DATA8
//   36 const SimpleDescriptionFormat_t SampleApp_SimpleDesc =
SampleApp_SimpleDesc:
        DB 10
        DATA16
        DW 3844
        DW 1
        DATA8
        DB 0
        DB 1
        DATA16
        DW SampleApp_ClusterList
        DATA8
        DB 1
        DATA16
        DW SampleApp_ClusterList
//   37 {
//   38     SAMPLEAPP_ENDPOINT,              //  int Endpoint;
//   39     SAMPLEAPP_PROFID,                //  uint16 AppProfId[2];
//   40     SAMPLEAPP_DEVICEID,              //  uint16 AppDeviceId[2];
//   41     SAMPLEAPP_DEVICE_VERSION,        //  int   AppDevVer:4;
//   42     SAMPLEAPP_FLAGS,                 //  int   AppFlags:4;
//   43     SAMPLEAPP_MAX_CLUSTERS,          //  byte  AppNumInClusters;
//   44     (cId_t *) SampleApp_ClusterList,  //  byte *pAppInClusterList;
//   45     SAMPLEAPP_MAX_CLUSTERS,          //  byte  AppNumInClusters;
//   46     (cId_t *) SampleApp_ClusterList   //  byte *pAppInClusterList;
//   47 };
//   48 

        RSEG XDATA_Z:XDATA:NOROOT(0)
        DATA8
//   49 endPointDesc_t SampleApp_epDesc;
SampleApp_epDesc:
        DS 6
        REQUIRE __INIT_XDATA_Z

        RSEG XDATA_Z:XDATA:NOROOT(0)
        DATA8
//   50 devStates_t SampleApp_NwkState;
SampleApp_NwkState:
        DS 1
        REQUIRE __INIT_XDATA_Z
//   51 
//   52 void SampleApp_SendTheMessage(void);
//   53 void SampleApp_MessageMSGCB( afIncomingMSGPacket_t *pkt );
//   54 

        RSEG BANKED_CODE:CODE:NOROOT(0)
//   55 void SampleApp_Init( uint8 task_id )
SampleApp_Init:
        CFI Block cfiBlock0 Using cfiCommon0
        CFI Function SampleApp_Init
        CODE
//   56 {
        FUNCALL SampleApp_Init, afRegister
        LOCFRAME ISTACK, 0, STACK
        LOCFRAME PSTACK, 0, STACK
        LOCFRAME XSTACK, 9, STACK
        LOCFRAME IOVERLAY, 0, STATIC
        LOCFRAME DOVERLAY, 0, STATIC
        ARGFRAME ISTACK, 0, STACK
        ARGFRAME PSTACK, 0, STACK
        ARGFRAME XSTACK, 9, STACK
        ARGFRAME IOVERLAY, 0, STATIC
        ARGFRAME DOVERLAY, 0, STATIC
        FUNCALL SampleApp_Init, hal_car_configure
        LOCFRAME ISTACK, 0, STACK
        LOCFRAME PSTACK, 0, STACK
        LOCFRAME XSTACK, 9, STACK
        LOCFRAME IOVERLAY, 0, STATIC
        LOCFRAME DOVERLAY, 0, STATIC
        ARGFRAME ISTACK, 0, STACK
        ARGFRAME PSTACK, 0, STACK
        ARGFRAME XSTACK, 9, STACK
        ARGFRAME IOVERLAY, 0, STATIC
        ARGFRAME DOVERLAY, 0, STATIC
        FUNCALL SampleApp_Init, hal_track_configure
        LOCFRAME ISTACK, 0, STACK
        LOCFRAME PSTACK, 0, STACK
        LOCFRAME XSTACK, 9, STACK
        LOCFRAME IOVERLAY, 0, STATIC
        LOCFRAME DOVERLAY, 0, STATIC
        ARGFRAME ISTACK, 0, STACK
        ARGFRAME PSTACK, 0, STACK
        ARGFRAME XSTACK, 9, STACK
        ARGFRAME IOVERLAY, 0, STATIC
        ARGFRAME DOVERLAY, 0, STATIC
        MOV     A,#-0x9
        LCALL   ?BANKED_ENTER_XDATA
        CFI DPH0 load(1, XDATA, add(CFA_XSP16, literal(-1)))
        CFI DPL0 load(1, XDATA, add(CFA_XSP16, literal(-2)))
        CFI ?BRET_EXT load(1, XDATA, add(CFA_XSP16, literal(-3)))
        CFI ?RET_HIGH load(1, XDATA, add(CFA_XSP16, literal(-4)))
        CFI ?RET_LOW load(1, XDATA, add(CFA_XSP16, literal(-5)))
        CFI R7 load(1, XDATA, add(CFA_XSP16, literal(-6)))
        CFI V0 load(1, XDATA, add(CFA_XSP16, literal(-7)))
        CFI VB load(1, XDATA, add(CFA_XSP16, literal(-8)))
        CFI R6 load(1, XDATA, add(CFA_XSP16, literal(-9)))
        CFI CFA_SP SP+0
        CFI CFA_XSP16 add(XSP16, 9)
        ; Saved register size: 9
        ; Auto size: 0
        MOV     A,R1
//   57   SampleApp_TaskID = task_id;
        MOV     DPTR,#SampleApp_TaskID
        MOVX    @DPTR,A
//   58   SampleApp_TransID = 0;
        MOV     DPTR,#SampleApp_TransID
        CLR     A
        MOVX    @DPTR,A
//   59   
//   60   //通信部分配置
//   61   SampleApp_NwkState=DEV_INIT;
        MOV     DPTR,#SampleApp_NwkState
        INC     A
        MOVX    @DPTR,A
//   62   
//   63   //定义本设备用来通信的APS层端点描述符
//   64   SampleApp_epDesc.endPoint = SAMPLEAPP_ENDPOINT;//应用程序的端口号
        MOV     DPTR,#SampleApp_epDesc
        MOV     A,#0xa
        MOVX    @DPTR,A
//   65   SampleApp_epDesc.task_id = &SampleApp_TaskID;  //描述符的任务ID
        INC     DPTR
        MOV     A,#SampleApp_TaskID & 0xff
        MOVX    @DPTR,A
        INC     DPTR
        MOV     A,#(SampleApp_TaskID >> 8) & 0xff
        MOVX    @DPTR,A
//   66   SampleApp_epDesc.simpleDesc                     //简单描述符
//   67       = (SimpleDescriptionFormat_t *)&SampleApp_SimpleDesc;
        INC     DPTR
        MOV     A,#SampleApp_SimpleDesc & 0xff
        MOVX    @DPTR,A
        INC     DPTR
        MOV     A,#(SampleApp_SimpleDesc >> 8) & 0xff
        MOVX    @DPTR,A
//   68   SampleApp_epDesc.latencyReq = noLatencyReqs;    //延时策略
        INC     DPTR
        CLR     A
        MOVX    @DPTR,A
//   69   afRegister( &SampleApp_epDesc );                //向AF层登记描述符
        ; Setup parameters for call to function afRegister
        MOV     R2,#SampleApp_epDesc & 0xff
        MOV     R3,#(SampleApp_epDesc >> 8) & 0xff
        LCALL   ??afRegister?relay
//   70   
//   71   //点播配置
//   72   devDstAddr.addrMode=(afAddrMode_t)Addr16Bit;
        MOV     DPTR,#devDstAddr + 8
        MOV     A,#0x2
        MOVX    @DPTR,A
//   73   devDstAddr.endPoint= SAMPLEAPP_ENDPOINT;
        INC     DPTR
        MOV     A,#0xa
        MOVX    @DPTR,A
//   74   devDstAddr.addr.shortAddr=0x0000;   //发送到协调器
        MOV     DPTR,#devDstAddr
        CLR     A
        MOVX    @DPTR,A
        INC     DPTR
        MOVX    @DPTR,A
//   75   
//   76   //执行部分配置
//   77   hal_car_configure();
        ; Setup parameters for call to function hal_car_configure
        LCALL   ??hal_car_configure?relay
//   78   hal_track_configure();
        ; Setup parameters for call to function hal_track_configure
        LCALL   ??hal_track_configure?relay
//   79   
//   80 //  osal_set_event( SampleApp_TaskID, SAMPLEAPP_ARRIVE_EVT );
//   81 //  osal_set_event( SampleApp_TaskID, SAMPLEAPP_CAR_EVT );
//   82 //  osal_set_event( SampleApp_TaskID, SAMPLEAPP_COLOR_EVT );
//   83   
//   84 }
        MOV     R7,#0x1
        LJMP    ?BANKED_LEAVE_XDATA
        CFI EndBlock cfiBlock0
//   85 

        RSEG BANKED_CODE:CODE:NOROOT(0)
//   86 uint16 SampleApp_ProcessEvent( uint8 task_id, uint16 events )
SampleApp_ProcessEvent:
        CFI Block cfiBlock1 Using cfiCommon0
        CFI Function SampleApp_ProcessEvent
        CODE
//   87 {
        ; Saved register size: 0
        ; Auto size: 0
//   88   /*
//   89   afIncomingMSGPacket_t *MSGpkt;
//   90   (void)task_id;  // Intentionally unreferenced parameter
//   91   
//   92 //自行定义的事件处理函数
//   93   if ( events & SAMPLEAPP_CAR_EVT )
//   94   {
//   95       if( SampleAppState == 0  )
//   96       {
//   97         if( SampleAppDirection == 1 )
//   98         {
//   99           hal_car_turnleft();
//  100           osal_start_timerEx( SampleApp_TaskID, SAMPLEAPP_CAR_EVT, 5 );
//  101         }
//  102         if( SampleAppDirection == 2 )
//  103         {
//  104           hal_car_turnright();
//  105           osal_start_timerEx( SampleApp_TaskID, SAMPLEAPP_CAR_EVT, 5 );
//  106         }
//  107         if( SampleAppDirection == 0 )
//  108         {
//  109           hal_car_go();
//  110           osal_start_timerEx( SampleApp_TaskID, SAMPLEAPP_CAR_EVT, 5 );
//  111         }
//  112         if( SampleAppDirection == 3 )
//  113         {
//  114           hal_car_stop();
//  115         }
//  116         SampleAppState = 1;
//  117         
//  118       }
//  119       else if( SampleAppState == 1 )
//  120       {
//  121         hal_car_stop();
//  122         SampleAppState = 0;
//  123         osal_start_timerEx( SampleApp_TaskID, SAMPLEAPP_CAR_EVT, 15 );
//  124       }
//  125     return( events ^ SAMPLEAPP_CAR_EVT );
//  126   }
//  127   
//  128 //自行定义的事件处理函数
//  129   if( events & SAMPLEAPP_COLOR_EVT ) //此时检测到黑带
//  130    {
//  131       if( Color_1 == 1 && Color_2 == 0 )
//  132       {
//  133         SampleAppDirection = 1;
//  134         osal_start_timerEx( SampleApp_TaskID, SAMPLEAPP_COLOR_EVT, 100 );
//  135       }
//  136       else if( Color_1 == 0 && Color_2 == 1 )   
//  137       {
//  138         SampleAppDirection = 2;
//  139         osal_start_timerEx( SampleApp_TaskID, SAMPLEAPP_COLOR_EVT, 100 );
//  140       }
//  141       else if( Color_1 == 0 && Color_2 == 0 )
//  142       {
//  143         SampleAppDirection = 0;
//  144         osal_start_timerEx( SampleApp_TaskID, SAMPLEAPP_COLOR_EVT, 50 );
//  145       }    
//  146       else if( Color_1 == 1 && Color_2 == 1 )
//  147       {
//  148         SampleAppDirection = 3;
//  149       }
//  150     return( events ^ SAMPLEAPP_COLOR_EVT );
//  151   }
//  152   
//  153     if( events & SAMPLEAPP_ARRIVE_EVT ) //此时检测到黑带
//  154    {
//  155       if( Color_1 == 1 && Color_2 == 1 )
//  156       {
//  157         //SampleApp_SendTheMessage();
//  158       }
//  159       else
//  160       {
//  161         osal_set_event( SampleApp_TaskID, SAMPLEAPP_ARRIVE_EVT ); 
//  162       }
//  163 
//  164     return( events ^ SAMPLEAPP_ARRIVE_EVT );
//  165   }
//  166 */
//  167 
//  168   return 0;
        MOV     R2,#0x0
        MOV     R3,#0x0
        LJMP    ?BRET
        CFI EndBlock cfiBlock1
//  169 }
//  170   
//  171 

        RSEG BANKED_CODE:CODE:NOROOT(0)
//  172 void SampleApp_SendTheMessage(void)
SampleApp_SendTheMessage:
        CFI Block cfiBlock2 Using cfiCommon0
        CFI Function SampleApp_SendTheMessage
        CODE
//  173 {
        FUNCALL SampleApp_SendTheMessage, AF_DataRequest
        LOCFRAME ISTACK, 0, STACK
        LOCFRAME PSTACK, 0, STACK
        LOCFRAME XSTACK, 21, STACK
        LOCFRAME IOVERLAY, 0, STATIC
        LOCFRAME DOVERLAY, 0, STATIC
        ARGFRAME ISTACK, 0, STACK
        ARGFRAME PSTACK, 0, STACK
        ARGFRAME XSTACK, 21, STACK
        ARGFRAME IOVERLAY, 0, STATIC
        ARGFRAME DOVERLAY, 0, STATIC
        MOV     A,#-0xa
        LCALL   ?BANKED_ENTER_XDATA
        CFI DPH0 load(1, XDATA, add(CFA_XSP16, literal(-1)))
        CFI DPL0 load(1, XDATA, add(CFA_XSP16, literal(-2)))
        CFI ?BRET_EXT load(1, XDATA, add(CFA_XSP16, literal(-3)))
        CFI ?RET_HIGH load(1, XDATA, add(CFA_XSP16, literal(-4)))
        CFI ?RET_LOW load(1, XDATA, add(CFA_XSP16, literal(-5)))
        CFI R7 load(1, XDATA, add(CFA_XSP16, literal(-6)))
        CFI V1 load(1, XDATA, add(CFA_XSP16, literal(-7)))
        CFI V0 load(1, XDATA, add(CFA_XSP16, literal(-8)))
        CFI VB load(1, XDATA, add(CFA_XSP16, literal(-9)))
        CFI R6 load(1, XDATA, add(CFA_XSP16, literal(-10)))
        CFI CFA_SP SP+0
        CFI CFA_XSP16 add(XSP16, 10)
        ; Saved register size: 10
        ; Auto size: 2
        MOV     A,#-0x2
        LCALL   ?ALLOC_XSTACK8
        CFI CFA_XSP16 add(XSP16, 12)
//  174     byte SendData[2]="1";
        MOV     DPL,?XSP + 0
        MOV     DPH,?XSP + 1
        MOV     R4,DPL
        MOV     R5,DPH
        MOV     DPH,#(`?<Constant "1">` >> 8) & 0xff
        MOV     DPL,#`?<Constant "1">` & 0xff
        MOV     A,#0x2
        LCALL   ?MOVE_LONG8_XDATA_XDATA
//  175            
//  176     AF_DataRequest(&devDstAddr,
//  177         &SampleApp_epDesc,
//  178         SAMPLEAPP_CLUSTERID,
//  179         1,
//  180         SendData,
//  181         &SampleApp_TransID,
//  182         AF_DISCV_ROUTE,
//  183         AF_DEFAULT_RADIUS);
        ; Setup parameters for call to function AF_DataRequest
        MOV     ?V0 + 0,#0x1e
        MOV     R0,#?V0 + 0
        LCALL   ?PUSH_XSTACK_I_ONE
        CFI CFA_XSP16 add(XSP16, 13)
        MOV     ?V0 + 0,#SampleApp_TransID & 0xff
        MOV     ?V0 + 1,#(SampleApp_TransID >> 8) & 0xff
        MOV     R0,#?V0 + 0
        LCALL   ?PUSH_XSTACK_I_TWO
        CFI CFA_XSP16 add(XSP16, 15)
        MOV     A,#0x3
        LCALL   ?XSTACK_DISP0_8
        MOV     ?V0 + 0,DPL
        MOV     ?V0 + 1,DPH
        MOV     R0,#?V0 + 0
        LCALL   ?PUSH_XSTACK_I_TWO
        CFI CFA_XSP16 add(XSP16, 17)
        MOV     ?V0 + 0,#0x1
        MOV     ?V0 + 1,#0x0
        MOV     R0,#?V0 + 0
        LCALL   ?PUSH_XSTACK_I_TWO
        CFI CFA_XSP16 add(XSP16, 19)
        MOV     R0,#?V0 + 0
        LCALL   ?PUSH_XSTACK_I_TWO
        CFI CFA_XSP16 add(XSP16, 21)
        MOV     R1,#0x20
        MOV     R4,#SampleApp_epDesc & 0xff
        MOV     R5,#(SampleApp_epDesc >> 8) & 0xff
        MOV     R2,#devDstAddr & 0xff
        MOV     R3,#(devDstAddr >> 8) & 0xff
        LCALL   ??AF_DataRequest?relay
        MOV     A,#0x9
        LCALL   ?DEALLOC_XSTACK8
        CFI CFA_XSP16 add(XSP16, 12)
//  184 }
        MOV     A,#0x2
        LCALL   ?DEALLOC_XSTACK8
        CFI CFA_XSP16 add(XSP16, 10)
        MOV     R7,#0x2
        LJMP    ?BANKED_LEAVE_XDATA
        CFI EndBlock cfiBlock2
//  185 

        RSEG BANKED_CODE:CODE:NOROOT(0)
//  186 void SampleApp_MessageMSGCB(afIncomingMSGPacket_t *pkt)
SampleApp_MessageMSGCB:
        CFI Block cfiBlock3 Using cfiCommon0
        CFI Function SampleApp_MessageMSGCB
        CODE
//  187 {
        FUNCALL SampleApp_MessageMSGCB, osal_memset
        LOCFRAME ISTACK, 0, STACK
        LOCFRAME PSTACK, 0, STACK
        LOCFRAME XSTACK, 14, STACK
        LOCFRAME IOVERLAY, 0, STATIC
        LOCFRAME DOVERLAY, 0, STATIC
        ARGFRAME ISTACK, 0, STACK
        ARGFRAME PSTACK, 0, STACK
        ARGFRAME XSTACK, 14, STACK
        ARGFRAME IOVERLAY, 0, STATIC
        ARGFRAME DOVERLAY, 0, STATIC
        FUNCALL SampleApp_MessageMSGCB, osal_memcpy
        LOCFRAME ISTACK, 0, STACK
        LOCFRAME PSTACK, 0, STACK
        LOCFRAME XSTACK, 17, STACK
        LOCFRAME IOVERLAY, 0, STATIC
        LOCFRAME DOVERLAY, 0, STATIC
        ARGFRAME ISTACK, 0, STACK
        ARGFRAME PSTACK, 0, STACK
        ARGFRAME XSTACK, 17, STACK
        ARGFRAME IOVERLAY, 0, STATIC
        ARGFRAME DOVERLAY, 0, STATIC
        FUNCALL SampleApp_MessageMSGCB, HalLedBlink
        LOCFRAME ISTACK, 0, STACK
        LOCFRAME PSTACK, 0, STACK
        LOCFRAME XSTACK, 14, STACK
        LOCFRAME IOVERLAY, 0, STATIC
        LOCFRAME DOVERLAY, 0, STATIC
        ARGFRAME ISTACK, 0, STACK
        ARGFRAME PSTACK, 0, STACK
        ARGFRAME XSTACK, 14, STACK
        ARGFRAME IOVERLAY, 0, STATIC
        ARGFRAME DOVERLAY, 0, STATIC
        MOV     A,#-0xb
        LCALL   ?BANKED_ENTER_XDATA
        CFI DPH0 load(1, XDATA, add(CFA_XSP16, literal(-1)))
        CFI DPL0 load(1, XDATA, add(CFA_XSP16, literal(-2)))
        CFI ?BRET_EXT load(1, XDATA, add(CFA_XSP16, literal(-3)))
        CFI ?RET_HIGH load(1, XDATA, add(CFA_XSP16, literal(-4)))
        CFI ?RET_LOW load(1, XDATA, add(CFA_XSP16, literal(-5)))
        CFI R7 load(1, XDATA, add(CFA_XSP16, literal(-6)))
        CFI V2 load(1, XDATA, add(CFA_XSP16, literal(-7)))
        CFI V1 load(1, XDATA, add(CFA_XSP16, literal(-8)))
        CFI V0 load(1, XDATA, add(CFA_XSP16, literal(-9)))
        CFI VB load(1, XDATA, add(CFA_XSP16, literal(-10)))
        CFI R6 load(1, XDATA, add(CFA_XSP16, literal(-11)))
        CFI CFA_SP SP+0
        CFI CFA_XSP16 add(XSP16, 11)
        ; Saved register size: 11
        ; Auto size: 3
        MOV     A,#-0x3
        LCALL   ?ALLOC_XSTACK8
        CFI CFA_XSP16 add(XSP16, 14)
        MOV     A,R2
        MOV     R6,A
        MOV     A,R3
        MOV     R7,A
//  188     unsigned char buf[3]; 
//  189     
//  190     switch ( pkt->clusterId )
        MOV     DPL,R6
        MOV     DPH,R7
        INC     DPTR
        INC     DPTR
        INC     DPTR
        INC     DPTR
        MOVX    A,@DPTR
        XRL     A,#0x1
        JNZ     ??SampleApp_MessageMSGCB_0
        INC     DPTR
        MOVX    A,@DPTR
??SampleApp_MessageMSGCB_0:
        JNZ     ??SampleApp_MessageMSGCB_1
//  191     {
//  192     case SAMPLEAPP_CLUSTERID:
//  193         osal_memset(buf, 0 , 3);
        ; Setup parameters for call to function osal_memset
        MOV     R4,#0x3
        MOV     R5,#0x0
        MOV     R1,#0x0
        MOV     DPL,?XSP + 0
        MOV     DPH,?XSP + 1
        MOV     R2,DPL
        MOV     R3,DPH
        LCALL   ??osal_memset?relay
//  194         osal_memcpy(buf, pkt->cmd.Data, 2);
        ; Setup parameters for call to function osal_memcpy
        MOV     A,R6
        ADD     A,#0x21
        MOV     DPL,A
        MOV     A,R7
        ADDC    A,#0x0
        MOV     DPH,A
        MOVX    A,@DPTR
        MOV     ?V0 + 0,A
        INC     DPTR
        MOVX    A,@DPTR
        MOV     ?V0 + 1,A
        MOV     ?V0 + 2,#0x0
        MOV     R0,#?V0 + 0
        LCALL   ?PUSH_XSTACK_I_THREE
        CFI CFA_XSP16 add(XSP16, 17)
        MOV     R4,#0x2
        MOV     R5,#0x0
        MOV     A,#0x3
        LCALL   ?XSTACK_DISP0_8
        MOV     R2,DPL
        MOV     R3,DPH
        LCALL   ??osal_memcpy?relay
        MOV     A,#0x3
        LCALL   ?DEALLOC_XSTACK8
        CFI CFA_XSP16 add(XSP16, 14)
//  195         
//  196         if( buf[0] == '0' && buf[1] == '2' )       
        MOV     DPL,?XSP + 0
        MOV     DPH,?XSP + 1
        MOVX    A,@DPTR
        XRL     A,#0x30
        JNZ     ??SampleApp_MessageMSGCB_1
        MOV     A,#0x1
        LCALL   ?XSTACK_DISP0_8
        MOVX    A,@DPTR
        XRL     A,#0x32
        JNZ     ??SampleApp_MessageMSGCB_1
//  197         {
//  198             //osal_set_event( SampleApp_TaskID, SAMPLEAPP_CAR_EVT );
//  199             //osal_set_event( SampleApp_TaskID, SAMPLEAPP_COLOR_EVT );
//  200             HalLedBlink(HAL_LED_1, 0, 50, 500);             
        ; Setup parameters for call to function HalLedBlink
        MOV     R4,#-0xc
        MOV     R5,#0x1
        MOV     R3,#0x32
        MOV     R2,#0x0
        MOV     R1,#0x1
        LCALL   ??HalLedBlink?relay
//  201         }
//  202         else
//  203         {                 
//  204         }
//  205         break;
//  206     }
//  207 }
??SampleApp_MessageMSGCB_1:
        MOV     A,#0x3
        LCALL   ?DEALLOC_XSTACK8
        CFI CFA_XSP16 add(XSP16, 11)
        MOV     R7,#0x3
        LJMP    ?BANKED_LEAVE_XDATA
        CFI EndBlock cfiBlock3

        RSEG BANK_RELAYS:CODE:REORDER:NOROOT(0)
??SampleApp_Init?relay:
        LCALL   ?BDISPATCH
        DATA
        DC24    SampleApp_Init

        RSEG BANK_RELAYS:CODE:REORDER:NOROOT(0)
??SampleApp_ProcessEvent?relay:
        LCALL   ?BDISPATCH
        DATA
        DC24    SampleApp_ProcessEvent

        RSEG BANK_RELAYS:CODE:REORDER:NOROOT(0)
??SampleApp_SendTheMessage?relay:
        LCALL   ?BDISPATCH
        DATA
        DC24    SampleApp_SendTheMessage

        RSEG BANK_RELAYS:CODE:REORDER:NOROOT(0)
??SampleApp_MessageMSGCB?relay:
        LCALL   ?BDISPATCH
        DATA
        DC24    SampleApp_MessageMSGCB

        RSEG XDATA_ROM_C:CONST:REORDER:NOROOT(0)
        DATA16
`?<Constant "1">`:
        DB "1"

        END
// 
// 337 bytes in segment BANKED_CODE
//  24 bytes in segment BANK_RELAYS
//  16 bytes in segment XDATA_ROM_C
//  23 bytes in segment XDATA_Z
// 
// 361 bytes of CODE  memory
//  16 bytes of CONST memory
//  23 bytes of XDATA memory
//
//Errors: none
//Warnings: none
