###############################################################################
#                                                                             #
# IAR C/C++ Compiler V8.10.3.10338/W32 for 8051         26/Dec/2017  13:47:27 #
# Copyright 2004-2011 IAR Systems AB.                                         #
#                                                                             #
#    Core               =  plain                                              #
#    Code model         =  banked                                             #
#    Data model         =  large                                              #
#    Calling convention =  xdata reentrant                                    #
#    Constant location  =  data_rom                                           #
#    Dptr setup         =  1,16                                               #
#    Source file        =  C:\Users\John\Desktop\Try_zigbee\ZStack-CC2530-2.3 #
#                          .0-1.4.0\Projects\zstack\Samples\SampleApp\Source\ #
#                          CoordinatorSampleApp.c                             #
#    Command line       =  -f C:\Users\John\Desktop\Try_zigbee\ZStack-CC2530- #
#                          2.3.0-1.4.0\Projects\zstack\Samples\SampleApp\CC25 #
#                          30DB\..\..\..\Tools\CC2530DB\f8wCoord.cfg          #
#                          (-DCPU32MHZ -DROOT=__near_func                     #
#                          -DMAC_CFG_APP_PENDING_QUEUE=TRUE                   #
#                          -DZDO_COORDINATOR -DRTR_NWK -DBLINK_LEDS) -f       #
#                          C:\Users\John\Desktop\Try_zigbee\ZStack-CC2530-2.3 #
#                          .0-1.4.0\Projects\zstack\Samples\SampleApp\CC2530D #
#                          B\..\..\..\Tools\CC2530DB\f8wConfig.cfg            #
#                          (-DSECURE=0 -DZG_SECURE_DYNAMIC=0 -DREFLECTOR      #
#                          -DDEFAULT_CHANLIST=0x00000800                      #
#                          -DZDAPP_CONFIG_PAN_ID=0xFFF1                       #
#                          -DNWK_START_DELAY=100 -DEXTENDED_JOINING_RANDOM_MA #
#                          SK=0x007F -DBEACON_REQUEST_DELAY=100               #
#                          -DBEACON_REQ_DELAY_MASK=0x00FF                     #
#                          -DROUTE_EXPIRY_TIME=30 -DAPSC_ACK_WAIT_DURATION_PO #
#                          LLED=3000 -DNWK_INDIRECT_MSG_TIMEOUT=7             #
#                          -DMAX_RREQ_ENTRIES=8 -DAPSC_MAX_FRAME_RETRIES=3    #
#                          -DNWK_MAX_DATA_RETRIES=2                           #
#                          -DMAX_POLL_FAILURE_RETRIES=2 -DMAX_BCAST=9         #
#                          -DAPS_MAX_GROUPS=16 -DMAX_RTG_ENTRIES=40           #
#                          -DNWK_MAX_BINDING_ENTRIES=4                        #
#                          -DMAX_BINDING_CLUSTER_IDS=4 "-DDEFAULT_KEY={0x01,  #
#                          0x03, 0x05, 0x07, 0x09, 0x0B, 0x0D, 0x0F, 0x00,    #
#                          0x02, 0x04, 0x06, 0x08, 0x0A, 0x0C, 0x0D}"         #
#                          -DMAC_MAX_FRAME_SIZE=116 "-DCONST=const __code"    #
#                          -DGENERIC=__generic -DRFD_RCVC_ALWAYS_ON=FALSE     #
#                          -DPOLL_RATE=1000 -DQUEUED_POLL_RATE=100            #
#                          -DRESPONSE_POLL_RATE=100) -DREJOIN_POLL_RATE=440   #
#                          C:\Users\John\Desktop\Try_zigbee\ZStack-CC2530-2.3 #
#                          .0-1.4.0\Projects\zstack\Samples\SampleApp\Source\ #
#                          CoordinatorSampleApp.c -D ZIGBEEPRO -D ZTOOL_P1    #
#                          -D xMT_TASK -D xMT_SYS_FUNC -D xMT_ZDO_FUNC -D     #
#                          LCD_SUPPORTED=DEBUG -lC C:\Users\John\Desktop\Try_ #
#                          zigbee\ZStack-CC2530-2.3.0-1.4.0\Projects\zstack\S #
#                          amples\SampleApp\CC2530DB\CoordinatorEB-Pro\List\  #
#                          -lA C:\Users\John\Desktop\Try_zigbee\ZStack-CC2530 #
#                          -2.3.0-1.4.0\Projects\zstack\Samples\SampleApp\CC2 #
#                          530DB\CoordinatorEB-Pro\List\ --diag_suppress      #
#                          Pe001,Pa010 -o C:\Users\John\Desktop\Try_zigbee\ZS #
#                          tack-CC2530-2.3.0-1.4.0\Projects\zstack\Samples\Sa #
#                          mpleApp\CC2530DB\CoordinatorEB-Pro\Obj\ -e         #
#                          --debug --core=plain --dptr=16,1                   #
#                          --data_model=large --code_model=banked             #
#                          --calling_convention=xdata_reentrant               #
#                          --place_constants=data_rom --nr_virtual_regs 16    #
#                          -I C:\Users\John\Desktop\Try_zigbee\ZStack-CC2530- #
#                          2.3.0-1.4.0\Projects\zstack\Samples\SampleApp\CC25 #
#                          30DB\ -I C:\Users\John\Desktop\Try_zigbee\ZStack-C #
#                          C2530-2.3.0-1.4.0\Projects\zstack\Samples\SampleAp #
#                          p\CC2530DB\..\SOURCE\ -I                           #
#                          C:\Users\John\Desktop\Try_zigbee\ZStack-CC2530-2.3 #
#                          .0-1.4.0\Projects\zstack\Samples\SampleApp\CC2530D #
#                          B\..\..\..\ZMAIN\TI2530DB\ -I                      #
#                          C:\Users\John\Desktop\Try_zigbee\ZStack-CC2530-2.3 #
#                          .0-1.4.0\Projects\zstack\Samples\SampleApp\CC2530D #
#                          B\..\..\..\..\..\COMPONENTS\MT\ -I                 #
#                          C:\Users\John\Desktop\Try_zigbee\ZStack-CC2530-2.3 #
#                          .0-1.4.0\Projects\zstack\Samples\SampleApp\CC2530D #
#                          B\..\..\..\..\..\COMPONENTS\HAL\INCLUDE\ -I        #
#                          C:\Users\John\Desktop\Try_zigbee\ZStack-CC2530-2.3 #
#                          .0-1.4.0\Projects\zstack\Samples\SampleApp\CC2530D #
#                          B\..\..\..\..\..\COMPONENTS\HAL\TARGET\CC2530EB\   #
#                          -I C:\Users\John\Desktop\Try_zigbee\ZStack-CC2530- #
#                          2.3.0-1.4.0\Projects\zstack\Samples\SampleApp\CC25 #
#                          30DB\..\..\..\..\..\COMPONENTS\OSAL\MCU\CCSOC\ -I  #
#                          C:\Users\John\Desktop\Try_zigbee\ZStack-CC2530-2.3 #
#                          .0-1.4.0\Projects\zstack\Samples\SampleApp\CC2530D #
#                          B\..\..\..\..\..\COMPONENTS\OSAL\INCLUDE\ -I       #
#                          C:\Users\John\Desktop\Try_zigbee\ZStack-CC2530-2.3 #
#                          .0-1.4.0\Projects\zstack\Samples\SampleApp\CC2530D #
#                          B\..\..\..\..\..\COMPONENTS\STACK\AF\ -I           #
#                          C:\Users\John\Desktop\Try_zigbee\ZStack-CC2530-2.3 #
#                          .0-1.4.0\Projects\zstack\Samples\SampleApp\CC2530D #
#                          B\..\..\..\..\..\COMPONENTS\STACK\NWK\ -I          #
#                          C:\Users\John\Desktop\Try_zigbee\ZStack-CC2530-2.3 #
#                          .0-1.4.0\Projects\zstack\Samples\SampleApp\CC2530D #
#                          B\..\..\..\..\..\COMPONENTS\STACK\SEC\ -I          #
#                          C:\Users\John\Desktop\Try_zigbee\ZStack-CC2530-2.3 #
#                          .0-1.4.0\Projects\zstack\Samples\SampleApp\CC2530D #
#                          B\..\..\..\..\..\COMPONENTS\STACK\SAPI\ -I         #
#                          C:\Users\John\Desktop\Try_zigbee\ZStack-CC2530-2.3 #
#                          .0-1.4.0\Projects\zstack\Samples\SampleApp\CC2530D #
#                          B\..\..\..\..\..\COMPONENTS\STACK\SYS\ -I          #
#                          C:\Users\John\Desktop\Try_zigbee\ZStack-CC2530-2.3 #
#                          .0-1.4.0\Projects\zstack\Samples\SampleApp\CC2530D #
#                          B\..\..\..\..\..\COMPONENTS\STACK\ZDO\ -I          #
#                          C:\Users\John\Desktop\Try_zigbee\ZStack-CC2530-2.3 #
#                          .0-1.4.0\Projects\zstack\Samples\SampleApp\CC2530D #
#                          B\..\..\..\..\..\COMPONENTS\ZMAC\F8W\ -I           #
#                          C:\Users\John\Desktop\Try_zigbee\ZStack-CC2530-2.3 #
#                          .0-1.4.0\Projects\zstack\Samples\SampleApp\CC2530D #
#                          B\..\..\..\..\..\COMPONENTS\ZMAC\ -I               #
#                          C:\Users\John\Desktop\Try_zigbee\ZStack-CC2530-2.3 #
#                          .0-1.4.0\Projects\zstack\Samples\SampleApp\CC2530D #
#                          B\..\..\..\..\..\COMPONENTS\SERVICES\SADDR\ -I     #
#                          C:\Users\John\Desktop\Try_zigbee\ZStack-CC2530-2.3 #
#                          .0-1.4.0\Projects\zstack\Samples\SampleApp\CC2530D #
#                          B\..\..\..\..\..\COMPONENTS\SERVICES\SDATA\ -I     #
#                          C:\Users\John\Desktop\Try_zigbee\ZStack-CC2530-2.3 #
#                          .0-1.4.0\Projects\zstack\Samples\SampleApp\CC2530D #
#                          B\..\..\..\..\..\COMPONENTS\MAC\INCLUDE\ -I        #
#                          C:\Users\John\Desktop\Try_zigbee\ZStack-CC2530-2.3 #
#                          .0-1.4.0\Projects\zstack\Samples\SampleApp\CC2530D #
#                          B\..\..\..\..\..\COMPONENTS\MAC\HIGH_LEVEL\ -I     #
#                          C:\Users\John\Desktop\Try_zigbee\ZStack-CC2530-2.3 #
#                          .0-1.4.0\Projects\zstack\Samples\SampleApp\CC2530D #
#                          B\..\..\..\..\..\COMPONENTS\MAC\LOW_LEVEL\srf04\   #
#                          -I C:\Users\John\Desktop\Try_zigbee\ZStack-CC2530- #
#                          2.3.0-1.4.0\Projects\zstack\Samples\SampleApp\CC25 #
#                          30DB\..\..\..\..\..\COMPONENTS\MAC\LOW_LEVEL\srf04 #
#                          \SINGLE_CHIP\ -Ohz --require_prototypes            #
#    List file          =  C:\Users\John\Desktop\Try_zigbee\ZStack-CC2530-2.3 #
#                          .0-1.4.0\Projects\zstack\Samples\SampleApp\CC2530D #
#                          B\CoordinatorEB-Pro\List\CoordinatorSampleApp.lst  #
#    Object file        =  C:\Users\John\Desktop\Try_zigbee\ZStack-CC2530-2.3 #
#                          .0-1.4.0\Projects\zstack\Samples\SampleApp\CC2530D #
#                          B\CoordinatorEB-Pro\Obj\CoordinatorSampleApp.r51   #
#                                                                             #
#                                                                             #
###############################################################################

C:\Users\John\Desktop\Try_zigbee\ZStack-CC2530-2.3.0-1.4.0\Projects\zstack\Samples\SampleApp\Source\CoordinatorSampleApp.c
      1          /*********************************************************************
      2           * INCLUDES
      3           */
      4          #include "OSAL.h"
      5          #include "ZGlobals.h"
      6          #include "AF.h"
      7          #include "aps_groups.h"
      8          #include "ZDApp.h"
      9          
     10          #include "SampleApp.h"
     11          #include "SampleAppHw.h"
     12          
     13          #include "OnBoard.h"

   \                                 In  segment SFR_AN, at 0x80
   \   union <unnamed> volatile __sfr _A_P0
   \                     _A_P0:
   \   000000                DS 1
     14          
     15          /* HAL */
     16          #include "hal_car.h"
     17          #include "hal_track.h"
     18          #include "hal_led.h"
     19          #include "hal_uart.h"
     20          
     21          /*********************************************************************
     22           * MACROS
     23           */
     24          
     25          /*********************************************************************
     26           * CONSTANTS
     27           */
     28          #if !defined( SERIAL_APP_PORT )
     29          #define SERIAL_APP_PORT  0
     30          #endif
     31          
     32          #if !defined( SERIAL_APP_BAUD )
     33            //#define SERIAL_APP_BAUD  HAL_UART_BR_38400
     34            #define SERIAL_APP_BAUD  HAL_UART_BR_115200
     35          #endif
     36          
     37          // When the Rx buf space is less than this threshold, invoke the Rx callback.
     38          #if !defined( SERIAL_APP_THRESH )
     39          #define SERIAL_APP_THRESH  64
     40          #endif
     41          
     42          #if !defined( SERIAL_APP_RX_SZ )
     43          #define SERIAL_APP_RX_SZ  128
     44          #endif
     45          
     46          #if !defined( SERIAL_APP_TX_SZ )
     47          #define SERIAL_APP_TX_SZ  128
     48          #endif
     49          
     50          // Millisecs of idle time after a byte is received before invoking Rx callback.
     51          #if !defined( SERIAL_APP_IDLE )
     52          #define SERIAL_APP_IDLE  6
     53          #endif
     54          
     55          // Loopback Rx bytes to Tx for throughput testing.
     56          #if !defined( SERIAL_APP_LOOPBACK )
     57          #define SERIAL_APP_LOOPBACK  FALSE
     58          #endif
     59          
     60          // This is the max byte count per OTA message.
     61          #if !defined( SERIAL_APP_TX_MAX )
     62          #define SERIAL_APP_TX_MAX  80
     63          #endif
     64          
     65          #define SERIAL_APP_RSP_CNT  4
     66          
     67          /*********************************************************************
     68           * TYPEDEFS
     69           */
     70          

   \                                 In  segment XDATA_ROM_C, align 1
     71          const cId_t SampleApp_ClusterList[SAMPLEAPP_MAX_CLUSTERS] =
   \                     SampleApp_ClusterList:
   \   000000   0400         DW 4
   \   000002   0100         DW 1
     72          {
     73            SAMPLEAPP_P2P_CLUSTERID, 
     74            SAMPLEAPP_PERIODIC_CLUSTERID
     75          };
     76                                  

   \                                 In  segment XDATA_ROM_C, align 1
     77          const SimpleDescriptionFormat_t SampleApp_SimpleDesc =
   \                     SampleApp_SimpleDesc:
   \   000000   0A           DB 10
   \   000001   040F         DW 3844
   \   000003   0100         DW 1
   \   000005   00           DB 0
   \   000006   02           DB 2
   \   000007   ....         DW SampleApp_ClusterList
   \   000009   02           DB 2
   \   00000A   ....         DW SampleApp_ClusterList
     78          {
     79              SAMPLEAPP_ENDPOINT,              //  int Endpoint;
     80              SAMPLEAPP_PROFID,                //  uint16 AppProfId[2];
     81              SAMPLEAPP_DEVICEID,              //  uint16 AppDeviceId[2];
     82              SAMPLEAPP_DEVICE_VERSION,        //  int   AppDevVer:4;
     83              SAMPLEAPP_FLAGS,                 //  int   AppFlags:4;
     84              SAMPLEAPP_MAX_CLUSTERS,          //  byte  AppNumInClusters;
     85              (cId_t *) SampleApp_ClusterList,  //  byte *pAppInClusterList;
     86              SAMPLEAPP_MAX_CLUSTERS,          //  byte  AppNumInClusters;
     87              (cId_t *) SampleApp_ClusterList   //  byte *pAppInClusterList;
     88          };
     89          

   \                                 In  segment XDATA_Z, align 1, keep-with-next
     90          endPointDesc_t SampleApp_epDesc;
   \                     SampleApp_epDesc:
   \   000000                DS 6
   \   000006                REQUIRE __INIT_XDATA_Z

   \                                 In  segment XDATA_Z, align 1, keep-with-next
     91          uint8 SampleApp_TaskID;
   \                     SampleApp_TaskID:
   \   000000                DS 1
   \   000001                REQUIRE __INIT_XDATA_Z

   \                                 In  segment XDATA_Z, align 1, keep-with-next
     92          uint8 SampleApp_TransID;
   \                     SampleApp_TransID:
   \   000000                DS 1
   \   000001                REQUIRE __INIT_XDATA_Z

   \                                 In  segment XDATA_Z, align 1, keep-with-next
     93          afAddrType_t SampleApp_P2P_DstAddr;
   \                     SampleApp_P2P_DstAddr:
   \   000000                DS 12
   \   00000C                REQUIRE __INIT_XDATA_Z

   \                                 In  segment XDATA_Z, align 1, keep-with-next
     94          afAddrType_t SampleApp_Periodic_DstAddr;
   \                     SampleApp_Periodic_DstAddr:
   \   000000                DS 12
   \   00000C                REQUIRE __INIT_XDATA_Z
     95          

   \                                 In  segment XDATA_Z, align 1, keep-with-next
     96          uint8 SampleAppDirection = 0;
   \                     SampleAppDirection:
   \   000000                DS 1
   \   000001                REQUIRE __INIT_XDATA_Z

   \                                 In  segment XDATA_Z, align 1, keep-with-next
     97          uint8 SampleAppState = 0;
   \                     SampleAppState:
   \   000000                DS 1
   \   000001                REQUIRE __INIT_XDATA_Z
     98          
     99          void SampleApp_MessageMSGCB(afIncomingMSGPacket_t *pkt);
    100          //void SampleApp_Send_P2P_Message( byte* SendData, byte len );
    101          void SampleApp_SendPeriodicMessage( byte* SendData, byte len );
    102          void SampleApp_ControlCar(void);
    103          void SampleApp_DetectBlack(void);
    104          static void SerialApp_CallBack( uint8 port, uint8 event );
    105          

   \                                 In  segment BANKED_CODE, align 1, keep-with-next
    106          void SampleApp_Init( uint8 task_id )
   \                     SampleApp_Init:
    107          {
   \   000000   74F7         MOV     A,#-0x9
   \   000002   12....       LCALL   ?BANKED_ENTER_XDATA
   \   000005                ; Saved register size: 9
   \   000005                ; Auto size: 29
   \   000005   74E3         MOV     A,#-0x1d
   \   000007   12....       LCALL   ?ALLOC_XSTACK8
   \   00000A   E9           MOV     A,R1
   \   00000B   FE           MOV     R6,A
    108            SampleApp_TaskID = task_id;
   \   00000C   90....       MOV     DPTR,#SampleApp_TaskID
   \   00000F   F0           MOVX    @DPTR,A
    109            SampleApp_TransID = 0;
   \   000010   90....       MOV     DPTR,#SampleApp_TransID
   \   000013   E4           CLR     A
   \   000014   F0           MOVX    @DPTR,A
    110            //通信部分配置
    111            
    112            //定义本设备用来通信的APS层端点描述符
    113            SampleApp_epDesc.endPoint = SAMPLEAPP_ENDPOINT;//应用程序的端口号
   \   000015   90....       MOV     DPTR,#SampleApp_epDesc
   \   000018   740A         MOV     A,#0xa
   \   00001A   F0           MOVX    @DPTR,A
    114            SampleApp_epDesc.task_id = &SampleApp_TaskID;  //描述符的任务ID
   \   00001B   A3           INC     DPTR
   \   00001C   74..         MOV     A,#SampleApp_TaskID & 0xff
   \   00001E   F0           MOVX    @DPTR,A
   \   00001F   A3           INC     DPTR
   \   000020   74..         MOV     A,#(SampleApp_TaskID >> 8) & 0xff
   \   000022   F0           MOVX    @DPTR,A
    115            SampleApp_epDesc.simpleDesc                     //简单描述符
    116                = (SimpleDescriptionFormat_t *)&SampleApp_SimpleDesc;
   \   000023   A3           INC     DPTR
   \   000024   74..         MOV     A,#SampleApp_SimpleDesc & 0xff
   \   000026   F0           MOVX    @DPTR,A
   \   000027   A3           INC     DPTR
   \   000028   74..         MOV     A,#(SampleApp_SimpleDesc >> 8) & 0xff
   \   00002A   F0           MOVX    @DPTR,A
    117            SampleApp_epDesc.latencyReq = noLatencyReqs;    //延时策略
   \   00002B   A3           INC     DPTR
   \   00002C   E4           CLR     A
   \   00002D   F0           MOVX    @DPTR,A
    118            
    119            afRegister( &SampleApp_epDesc );                //向AF层登记描述符
   \   00002E                ; Setup parameters for call to function afRegister
   \   00002E   7A..         MOV     R2,#SampleApp_epDesc & 0xff
   \   000030   7B..         MOV     R3,#(SampleApp_epDesc >> 8) & 0xff
   \   000032   12....       LCALL   ??afRegister?relay
    120            RegisterForKeys( task_id );
   \   000035                ; Setup parameters for call to function RegisterForKeys
   \   000035   EE           MOV     A,R6
   \   000036   F9           MOV     R1,A
   \   000037   12....       LCALL   ??RegisterForKeys?relay
    121            
    122            //点播配置
    123            SampleApp_P2P_DstAddr.addrMode = (afAddrMode_t)Addr16Bit; //点播 
   \   00003A   90....       MOV     DPTR,#SampleApp_P2P_DstAddr + 8
   \   00003D   7402         MOV     A,#0x2
   \   00003F   F0           MOVX    @DPTR,A
    124            SampleApp_P2P_DstAddr.endPoint = SAMPLEAPP_ENDPOINT; 
   \   000040   A3           INC     DPTR
   \   000041   740A         MOV     A,#0xa
   \   000043   F0           MOVX    @DPTR,A
    125            SampleApp_P2P_DstAddr.addr.shortAddr = 0x0000;            //发给协调器
   \   000044   90....       MOV     DPTR,#SampleApp_P2P_DstAddr
   \   000047   E4           CLR     A
   \   000048   F0           MOVX    @DPTR,A
   \   000049   A3           INC     DPTR
   \   00004A   F0           MOVX    @DPTR,A
    126            
    127            //广播配置
    128            SampleApp_Periodic_DstAddr.addrMode = (afAddrMode_t)AddrBroadcast;//广播
   \   00004B   90....       MOV     DPTR,#SampleApp_Periodic_DstAddr + 8
   \   00004E   740F         MOV     A,#0xf
   \   000050   F0           MOVX    @DPTR,A
    129            SampleApp_Periodic_DstAddr.endPoint = SAMPLEAPP_ENDPOINT;
   \   000051   A3           INC     DPTR
   \   000052   740A         MOV     A,#0xa
   \   000054   F0           MOVX    @DPTR,A
    130            SampleApp_Periodic_DstAddr.addr.shortAddr = 0xFFFF;
   \   000055   90....       MOV     DPTR,#SampleApp_Periodic_DstAddr
   \   000058   74FF         MOV     A,#-0x1
   \   00005A   F0           MOVX    @DPTR,A
   \   00005B   A3           INC     DPTR
   \   00005C   F0           MOVX    @DPTR,A
    131            
    132            //串口配置
    133            halUARTCfg_t uartConfig;
    134            
    135            uartConfig.configured           = TRUE;              // 2x30 don't care - see uart driver.
   \   00005D   85..82       MOV     DPL,?XSP + 0
   \   000060   85..83       MOV     DPH,?XSP + 1
   \   000063   7401         MOV     A,#0x1
   \   000065   F0           MOVX    @DPTR,A
    136            uartConfig.baudRate             = SERIAL_APP_BAUD;
   \   000066   12....       LCALL   ?XSTACK_DISP0_8
   \   000069   7404         MOV     A,#0x4
   \   00006B   F0           MOVX    @DPTR,A
    137            uartConfig.flowControl          = FALSE;
   \   00006C   7402         MOV     A,#0x2
   \   00006E   12....       LCALL   ?XSTACK_DISP0_8
   \   000071   E4           CLR     A
   \   000072   F0           MOVX    @DPTR,A
    138            uartConfig.flowControlThreshold = SERIAL_APP_THRESH; // 2x30 don't care - see uart driver.
   \   000073   7403         MOV     A,#0x3
   \   000075   12....       LCALL   ?XSTACK_DISP0_8
   \   000078   7440         MOV     A,#0x40
   \   00007A   F0           MOVX    @DPTR,A
   \   00007B   A3           INC     DPTR
   \   00007C   E4           CLR     A
   \   00007D   F0           MOVX    @DPTR,A
    139            uartConfig.rx.maxBufSize        = SERIAL_APP_RX_SZ;  // 2x30 don't care - see uart driver.
   \   00007E   740A         MOV     A,#0xa
   \   000080   12....       LCALL   ?XSTACK_DISP0_8
   \   000083   7480         MOV     A,#-0x80
   \   000085   F0           MOVX    @DPTR,A
   \   000086   A3           INC     DPTR
   \   000087   E4           CLR     A
   \   000088   F0           MOVX    @DPTR,A
    140            uartConfig.tx.maxBufSize        = SERIAL_APP_TX_SZ;  // 2x30 don't care - see uart driver.
   \   000089   7412         MOV     A,#0x12
   \   00008B   12....       LCALL   ?XSTACK_DISP0_8
   \   00008E   7480         MOV     A,#-0x80
   \   000090   F0           MOVX    @DPTR,A
   \   000091   A3           INC     DPTR
   \   000092   E4           CLR     A
   \   000093   F0           MOVX    @DPTR,A
    141            uartConfig.idleTimeout          = SERIAL_APP_IDLE;   // 2x30 don't care - see uart driver.
   \   000094   7405         MOV     A,#0x5
   \   000096   12....       LCALL   ?XSTACK_DISP0_8
   \   000099   7406         MOV     A,#0x6
   \   00009B   F0           MOVX    @DPTR,A
    142            uartConfig.intEnable            = TRUE;              // 2x30 don't care - see uart driver.
   \   00009C   7416         MOV     A,#0x16
   \   00009E   12....       LCALL   ?XSTACK_DISP0_8
   \   0000A1   7401         MOV     A,#0x1
   \   0000A3   F0           MOVX    @DPTR,A
    143            uartConfig.callBackFunc         = SerialApp_CallBack;
   \   0000A4   741B         MOV     A,#0x1b
   \   0000A6   12....       LCALL   ?XSTACK_DISP0_8
   \   0000A9   74..         MOV     A,#??SerialApp_CallBack?relay & 0xff
   \   0000AB   F0           MOVX    @DPTR,A
   \   0000AC   A3           INC     DPTR
   \   0000AD   74..         MOV     A,#(??SerialApp_CallBack?relay >> 8) & 0xff
   \   0000AF   F0           MOVX    @DPTR,A
    144            
    145            HalUARTOpen (SERIAL_APP_PORT, &uartConfig);
   \   0000B0                ; Setup parameters for call to function HalUARTOpen
   \   0000B0   85..82       MOV     DPL,?XSP + 0
   \   0000B3   85..83       MOV     DPH,?XSP + 1
   \   0000B6   AA82         MOV     R2,DPL
   \   0000B8   AB83         MOV     R3,DPH
   \   0000BA   7900         MOV     R1,#0x0
   \   0000BC   12....       LCALL   ??HalUARTOpen?relay
    146            
    147            //执行部分配置
    148            hal_car_configure();
   \   0000BF                ; Setup parameters for call to function hal_car_configure
   \   0000BF   12....       LCALL   ??hal_car_configure?relay
    149            hal_track_configure();
   \   0000C2                ; Setup parameters for call to function hal_track_configure
   \   0000C2   12....       LCALL   ??hal_track_configure?relay
    150            
    151          //  osal_set_event( SampleApp_TaskID, SAMPLEAPP_CAR_EVT );
    152          //  osal_set_event( SampleApp_TaskID, SAMPLEAPP_COLOR_EVT );
    153            
    154          }
   \   0000C5   741D         MOV     A,#0x1d
   \   0000C7   12....       LCALL   ?DEALLOC_XSTACK8
   \   0000CA   7F01         MOV     R7,#0x1
   \   0000CC   02....       LJMP    ?BANKED_LEAVE_XDATA
    155          

   \                                 In  segment BANKED_CODE, align 1, keep-with-next
    156          uint16 SampleApp_ProcessEvent( uint8 task_id, uint16 events )
   \                     SampleApp_ProcessEvent:
    157          {
   \   000000   74F4         MOV     A,#-0xc
   \   000002   12....       LCALL   ?BANKED_ENTER_XDATA
   \   000005                ; Saved register size: 12
   \   000005                ; Auto size: 0
   \   000005   EA           MOV     A,R2
   \   000006   FE           MOV     R6,A
   \   000007   EB           MOV     A,R3
   \   000008   FF           MOV     R7,A
    158            afIncomingMSGPacket_t *MSGpkt;
    159            (void)task_id;  // Intentionally unreferenced parameter
    160            
    161          //自行定义的事件处理函数
    162            if ( events & SAMPLEAPP_CAR_EVT )
   \   000009   EE           MOV     A,R6
   \   00000A   5430         ANL     A,#0x30
   \   00000C   6006         JZ      ??SampleApp_ProcessEvent_0
    163            {
    164              //SampleApp_ControlCar();      
    165              return( events ^ SAMPLEAPP_CAR_EVT );
   \   00000E   EE           MOV     A,R6
   \   00000F   6430         XRL     A,#0x30
   \                     ??SampleApp_ProcessEvent_1:
   \   000011   FA           MOV     R2,A
   \   000012   8048         SJMP    ??SampleApp_ProcessEvent_2
    166            }
    167          //自行定义的事件处理函数
    168            else if( events & SAMPLEAPP_COLOR_EVT ) //此时检测到黑带
   \                     ??SampleApp_ProcessEvent_0:
   \   000014   EE           MOV     A,R6
   \   000015   5440         ANL     A,#0x40
   \   000017   6005         JZ      ??SampleApp_ProcessEvent_3
    169             {
    170              //SampleApp_DetectBlack();  
    171              return( events ^ SAMPLEAPP_COLOR_EVT );
   \   000019   EE           MOV     A,R6
   \   00001A   6440         XRL     A,#0x40
   \   00001C   80F3         SJMP    ??SampleApp_ProcessEvent_1
    172            }
    173            else if ( events & SYS_EVENT_MSG )
   \                     ??SampleApp_ProcessEvent_3:
   \   00001E   EF           MOV     A,R7
   \   00001F   5480         ANL     A,#0x80
   \   000021   6035         JZ      ??SampleApp_ProcessEvent_4
    174            {
    175              MSGpkt = (afIncomingMSGPacket_t *)osal_msg_receive( SampleApp_TaskID );
   \   000023                ; Setup parameters for call to function osal_msg_receive
   \   000023   8019         SJMP    ??SampleApp_ProcessEvent_5
    176              while ( MSGpkt )
    177              {
    178                  switch ( MSGpkt->hdr.event )
   \                     ??SampleApp_ProcessEvent_6:
   \   000025   85..82       MOV     DPL,?V0 + 0
   \   000028   85..83       MOV     DPH,?V0 + 1
   \   00002B   E0           MOVX    A,@DPTR
   \   00002C   641A         XRL     A,#0x1a
   \   00002E   7007         JNZ     ??SampleApp_ProcessEvent_7
    179                  {
    180                  case AF_INCOMING_MSG_CMD:
    181                      SampleApp_MessageMSGCB(MSGpkt);
   \   000030                ; Setup parameters for call to function SampleApp_MessageMSGCB
   \   000030   AA..         MOV     R2,?V0 + 0
   \   000032   AB..         MOV     R3,?V0 + 1
   \   000034   12....       LCALL   ??SampleApp_MessageMSGCB?relay
    182                      break;
    183                  default:
    184                      break;
    185                  }
    186                  osal_msg_deallocate( (uint8 *)MSGpkt );
   \                     ??SampleApp_ProcessEvent_7:
   \   000037                ; Setup parameters for call to function osal_msg_deallocate
   \   000037   AA..         MOV     R2,?V0 + 0
   \   000039   AB..         MOV     R3,?V0 + 1
   \   00003B   12....       LCALL   ??osal_msg_deallocate?relay
    187                  MSGpkt = (afIncomingMSGPacket_t *)osal_msg_receive( SampleApp_TaskID );
   \   00003E                ; Setup parameters for call to function osal_msg_receive
   \                     ??SampleApp_ProcessEvent_5:
   \   00003E   90....       MOV     DPTR,#SampleApp_TaskID
   \   000041   E0           MOVX    A,@DPTR
   \   000042   F9           MOV     R1,A
   \   000043   12....       LCALL   ??osal_msg_receive?relay
   \   000046   8A..         MOV     ?V0 + 0,R2
   \   000048   8B..         MOV     ?V0 + 1,R3
    188              }
   \   00004A   E5..         MOV     A,?V0 + 0
   \   00004C   45..         ORL     A,?V0 + 1
   \   00004E   70D5         JNZ     ??SampleApp_ProcessEvent_6
    189              return (events ^ SYS_EVENT_MSG);
   \   000050   EE           MOV     A,R6
   \   000051   FA           MOV     R2,A
   \   000052   EF           MOV     A,R7
   \   000053   6480         XRL     A,#0x80
   \   000055   FB           MOV     R3,A
   \   000056   8004         SJMP    ??SampleApp_ProcessEvent_2
    190            }
    191            return 0;
   \                     ??SampleApp_ProcessEvent_4:
   \   000058   7A00         MOV     R2,#0x0
   \   00005A   7B00         MOV     R3,#0x0
   \                     ??SampleApp_ProcessEvent_2:
   \   00005C   7F04         MOV     R7,#0x4
   \   00005E   02....       LJMP    ?BANKED_LEAVE_XDATA
    192          }
    193          

   \                                 In  segment BANKED_CODE, align 1, keep-with-next
    194          void SampleApp_SendPeriodicMessage( byte* SendData, byte len )
   \                     SampleApp_SendPeriodicMessage:
    195          {
   \   000000   74F6         MOV     A,#-0xa
   \   000002   12....       LCALL   ?BANKED_ENTER_XDATA
   \   000005                ; Saved register size: 10
   \   000005                ; Auto size: 0
   \   000005   E9           MOV     A,R1
   \   000006   FE           MOV     R6,A
    196            if ( AF_DataRequest( &SampleApp_Periodic_DstAddr, &SampleApp_epDesc,
    197                                 SAMPLEAPP_PERIODIC_CLUSTERID,
    198                                 len,
    199                                 SendData,
    200                                 &SampleApp_TransID,
    201                                 AF_DISCV_ROUTE,
    202                                 AF_DEFAULT_RADIUS ) == afStatus_SUCCESS )
   \   000007                ; Setup parameters for call to function AF_DataRequest
   \   000007   75..1E       MOV     ?V0 + 0,#0x1e
   \   00000A   78..         MOV     R0,#?V0 + 0
   \   00000C   12....       LCALL   ?PUSH_XSTACK_I_ONE
   \   00000F   75....       MOV     ?V0 + 0,#SampleApp_TransID & 0xff
   \   000012   75....       MOV     ?V0 + 1,#(SampleApp_TransID >> 8) & 0xff
   \   000015   78..         MOV     R0,#?V0 + 0
   \   000017   12....       LCALL   ?PUSH_XSTACK_I_TWO
   \   00001A   8A..         MOV     ?V0 + 0,R2
   \   00001C   8B..         MOV     ?V0 + 1,R3
   \   00001E   78..         MOV     R0,#?V0 + 0
   \   000020   12....       LCALL   ?PUSH_XSTACK_I_TWO
   \   000023   8E..         MOV     ?V0 + 0,R6
   \   000025   75..00       MOV     ?V0 + 1,#0x0
   \   000028   78..         MOV     R0,#?V0 + 0
   \   00002A   12....       LCALL   ?PUSH_XSTACK_I_TWO
   \   00002D   75..01       MOV     ?V0 + 0,#0x1
   \   000030   78..         MOV     R0,#?V0 + 0
   \   000032   12....       LCALL   ?PUSH_XSTACK_I_TWO
   \   000035   7920         MOV     R1,#0x20
   \   000037   7C..         MOV     R4,#SampleApp_epDesc & 0xff
   \   000039   7D..         MOV     R5,#(SampleApp_epDesc >> 8) & 0xff
   \   00003B   7A..         MOV     R2,#SampleApp_Periodic_DstAddr & 0xff
   \   00003D   7B..         MOV     R3,#(SampleApp_Periodic_DstAddr >> 8) & 0xff
   \   00003F   12....       LCALL   ??AF_DataRequest?relay
   \   000042   7409         MOV     A,#0x9
   \   000044   12....       LCALL   ?DEALLOC_XSTACK8
   \   000047   E9           MOV     A,R1
   \   000048   7CF4         MOV     R4,#-0xc
   \   00004A   7D01         MOV     R5,#0x1
   \   00004C   7B32         MOV     R3,#0x32
   \   00004E   7A00         MOV     R2,#0x0
   \   000050   7004         JNZ     ??SampleApp_SendPeriodicMessage_0
    203            {
    204              HalLedBlink(HAL_LED_1, 0, 50, 500);
   \   000052                ; Setup parameters for call to function HalLedBlink
   \   000052   7901         MOV     R1,#0x1
   \   000054   8002         SJMP    ??SampleApp_SendPeriodicMessage_1
    205            }
    206            else
    207            {
    208              HalLedBlink(HAL_LED_2, 0, 50, 500);
   \                     ??SampleApp_SendPeriodicMessage_0:
   \   000056                ; Setup parameters for call to function HalLedBlink
   \   000056   7902         MOV     R1,#0x2
   \                     ??SampleApp_SendPeriodicMessage_1:
   \   000058   12....       LCALL   ??HalLedBlink?relay
    209              // Error occurred in request to send.
    210            }
    211          }
   \   00005B   7F02         MOV     R7,#0x2
   \   00005D   02....       LJMP    ?BANKED_LEAVE_XDATA
    212          

   \                                 In  segment BANKED_CODE, align 1, keep-with-next
    213          void SampleApp_MessageMSGCB(afIncomingMSGPacket_t *pkt)
   \                     SampleApp_MessageMSGCB:
    214          {
   \   000000   74F5         MOV     A,#-0xb
   \   000002   12....       LCALL   ?BANKED_ENTER_XDATA
   \   000005                ; Saved register size: 11
   \   000005                ; Auto size: 3
   \   000005   74FD         MOV     A,#-0x3
   \   000007   12....       LCALL   ?ALLOC_XSTACK8
   \   00000A   EA           MOV     A,R2
   \   00000B   FE           MOV     R6,A
   \   00000C   EB           MOV     A,R3
   \   00000D   FF           MOV     R7,A
    215              unsigned char buf[3]; 
    216              
    217              switch ( pkt->clusterId )
   \   00000E   8E82         MOV     DPL,R6
   \   000010   8F83         MOV     DPH,R7
   \   000012   A3           INC     DPTR
   \   000013   A3           INC     DPTR
   \   000014   A3           INC     DPTR
   \   000015   A3           INC     DPTR
   \   000016   E0           MOVX    A,@DPTR
   \   000017   6404         XRL     A,#0x4
   \   000019   7002         JNZ     ??SampleApp_MessageMSGCB_0
   \   00001B   A3           INC     DPTR
   \   00001C   E0           MOVX    A,@DPTR
   \                     ??SampleApp_MessageMSGCB_0:
   \   00001D   6003         JZ      $+5
   \   00001F   02....       LJMP    ??SampleApp_MessageMSGCB_1 & 0xFFFF
    218              {
    219              case SAMPLEAPP_P2P_CLUSTERID:
    220                  osal_memset(buf, 0 , 3);
   \   000022                ; Setup parameters for call to function osal_memset
   \   000022   7C03         MOV     R4,#0x3
   \   000024   7D00         MOV     R5,#0x0
   \   000026   7900         MOV     R1,#0x0
   \   000028   85..82       MOV     DPL,?XSP + 0
   \   00002B   85..83       MOV     DPH,?XSP + 1
   \   00002E   AA82         MOV     R2,DPL
   \   000030   AB83         MOV     R3,DPH
   \   000032   12....       LCALL   ??osal_memset?relay
    221                  osal_memcpy(buf, pkt->cmd.Data, 2);
   \   000035                ; Setup parameters for call to function osal_memcpy
   \   000035   EE           MOV     A,R6
   \   000036   2421         ADD     A,#0x21
   \   000038   F582         MOV     DPL,A
   \   00003A   EF           MOV     A,R7
   \   00003B   3400         ADDC    A,#0x0
   \   00003D   F583         MOV     DPH,A
   \   00003F   E0           MOVX    A,@DPTR
   \   000040   F5..         MOV     ?V0 + 0,A
   \   000042   A3           INC     DPTR
   \   000043   E0           MOVX    A,@DPTR
   \   000044   F5..         MOV     ?V0 + 1,A
   \   000046   75..00       MOV     ?V0 + 2,#0x0
   \   000049   78..         MOV     R0,#?V0 + 0
   \   00004B   12....       LCALL   ?PUSH_XSTACK_I_THREE
   \   00004E   7C02         MOV     R4,#0x2
   \   000050   7D00         MOV     R5,#0x0
   \   000052   7403         MOV     A,#0x3
   \   000054   12....       LCALL   ?XSTACK_DISP0_8
   \   000057   AA82         MOV     R2,DPL
   \   000059   AB83         MOV     R3,DPH
   \   00005B   12....       LCALL   ??osal_memcpy?relay
   \   00005E   7403         MOV     A,#0x3
   \   000060   12....       LCALL   ?DEALLOC_XSTACK8
    222                  HalUARTWrite( 0, buf, 2 );
   \   000063                ; Setup parameters for call to function HalUARTWrite
   \   000063   7C02         MOV     R4,#0x2
   \   000065   7D00         MOV     R5,#0x0
   \   000067   85..82       MOV     DPL,?XSP + 0
   \   00006A   85..83       MOV     DPH,?XSP + 1
   \   00006D   AA82         MOV     R2,DPL
   \   00006F   AB83         MOV     R3,DPH
   \   000071   7900         MOV     R1,#0x0
   \   000073   12....       LCALL   ??HalUARTWrite?relay
    223                  if( buf[0] == '1' && buf[1] == '0')
   \   000076   85..82       MOV     DPL,?XSP + 0
   \   000079   85..83       MOV     DPH,?XSP + 1
   \   00007C   E0           MOVX    A,@DPTR
   \   00007D   6431         XRL     A,#0x31
   \   00007F   7028         JNZ     ??SampleApp_MessageMSGCB_1
   \   000081   7401         MOV     A,#0x1
   \   000083   12....       LCALL   ?XSTACK_DISP0_8
   \   000086   E0           MOVX    A,@DPTR
   \   000087   F8           MOV     R0,A
   \   000088   7430         MOV     A,#0x30
   \   00008A   68           XRL     A,R0
   \   00008B   601C         JZ      ??SampleApp_MessageMSGCB_1
   \   00008D   7431         MOV     A,#0x31
   \   00008F   68           XRL     A,R0
   \   000090   7017         JNZ     ??SampleApp_MessageMSGCB_1
    224                  {
    225                  }
    226                  else if( buf[0] == '1' && buf[1] == '1' )
    227                  {
    228                    HalLedBlink(HAL_LED_1, 0, 50, 2000);
   \   000092                ; Setup parameters for call to function HalLedBlink
   \   000092   7CD0         MOV     R4,#-0x30
   \   000094   7D07         MOV     R5,#0x7
   \   000096   7B32         MOV     R3,#0x32
   \   000098   7A00         MOV     R2,#0x0
   \   00009A   7901         MOV     R1,#0x1
   \   00009C   12....       LCALL   ?Subroutine2 & 0xFFFF
    229                    HalLedBlink(HAL_LED_2, 0, 50, 2000);
    230                    HalLedBlink(HAL_LED_3, 0, 50, 2000);
    231                  }
    232                  break;
    233              }
   \                     ??CrossCallReturnLabel_0:
   \   00009F   7902         MOV     R1,#0x2
   \   0000A1   12....       LCALL   ?Subroutine2 & 0xFFFF
   \                     ??CrossCallReturnLabel_1:
   \   0000A4   7904         MOV     R1,#0x4
   \   0000A6   12....       LCALL   ??HalLedBlink?relay
    234          }
   \                     ??SampleApp_MessageMSGCB_1:
   \   0000A9   7403         MOV     A,#0x3
   \   0000AB   12....       LCALL   ?DEALLOC_XSTACK8
   \   0000AE   7F03         MOV     R7,#0x3
   \   0000B0   02....       LJMP    ?BANKED_LEAVE_XDATA

   \                                 In  segment BANKED_CODE, align 1, keep-with-next
   \                     ?Subroutine2:
   \   000000   12....       LCALL   ??HalLedBlink?relay
   \   000003                ; Setup parameters for call to function HalLedBlink
   \   000003                ; Setup parameters for call to function HalLedBlink
   \   000003   7CD0         MOV     R4,#-0x30
   \   000005   7D07         MOV     R5,#0x7
   \   000007   7B32         MOV     R3,#0x32
   \   000009   7A00         MOV     R2,#0x0
   \   00000B   22           RET
    235          

   \                                 In  segment BANKED_CODE, align 1, keep-with-next
    236          void SampleApp_ControlCar(void)
   \                     SampleApp_ControlCar:
    237          {
   \   000000   C082         PUSH    DPL
   \   000002   C083         PUSH    DPH
   \   000004                ; Saved register size: 2
   \   000004                ; Auto size: 0
    238                if( SampleAppState == 0  )
   \   000004   90....       MOV     DPTR,#SampleAppState
   \   000007   E0           MOVX    A,@DPTR
   \   000008   7034         JNZ     ??SampleApp_ControlCar_0
    239                {
    240                  if( SampleAppDirection == 1 )
   \   00000A   90....       MOV     DPTR,#SampleAppDirection
   \   00000D   E0           MOVX    A,@DPTR
   \   00000E   6401         XRL     A,#0x1
   \   000010   7008         JNZ     ??SampleApp_ControlCar_1
    241                  {
    242                    hal_car_turnleft();
   \   000012                ; Setup parameters for call to function hal_car_turnleft
   \   000012   12....       LCALL   ??hal_car_turnleft?relay
    243                    osal_start_timerEx( SampleApp_TaskID, SAMPLEAPP_CAR_EVT, 5 );
   \   000015                ; Setup parameters for call to function osal_start_timerEx
    244                  }
   \                     ??SampleApp_ControlCar_2:
   \   000015   12....       LCALL   ?Subroutine1 & 0xFFFF
   \                     ??CrossCallReturnLabel_2:
   \   000018   801C         SJMP    ??SampleApp_ControlCar_3
    245                  else if( SampleAppDirection == 2 )
   \                     ??SampleApp_ControlCar_1:
   \   00001A   E0           MOVX    A,@DPTR
   \   00001B   6402         XRL     A,#0x2
   \   00001D   7005         JNZ     ??SampleApp_ControlCar_4
    246                  {
    247                    hal_car_turnright();
   \   00001F                ; Setup parameters for call to function hal_car_turnright
   \   00001F   12....       LCALL   ??hal_car_turnright?relay
    248                    osal_start_timerEx( SampleApp_TaskID, SAMPLEAPP_CAR_EVT, 5 );
   \   000022                ; Setup parameters for call to function osal_start_timerEx
   \   000022   80F1         SJMP    ??SampleApp_ControlCar_2
    249                  }
    250                  else if( SampleAppDirection == 0 )
   \                     ??SampleApp_ControlCar_4:
   \   000024   E0           MOVX    A,@DPTR
   \   000025   7008         JNZ     ??SampleApp_ControlCar_5
    251                  {
    252                    hal_car_go();
   \   000027                ; Setup parameters for call to function hal_car_go
   \   000027   12....       LCALL   ??hal_car_go?relay
    253                    osal_start_timerEx( SampleApp_TaskID, SAMPLEAPP_CAR_EVT, 5 );
   \   00002A                ; Setup parameters for call to function osal_start_timerEx
   \   00002A   12....       LCALL   ?Subroutine1 & 0xFFFF
    254                  }
   \                     ??CrossCallReturnLabel_3:
   \   00002D   8007         SJMP    ??SampleApp_ControlCar_3
    255                  else if( SampleAppDirection == 3 )
   \                     ??SampleApp_ControlCar_5:
   \   00002F   6403         XRL     A,#0x3
   \   000031   7003         JNZ     ??SampleApp_ControlCar_3
    256                  {
    257                    hal_car_stop();
   \   000033                ; Setup parameters for call to function hal_car_stop
   \   000033   12....       LCALL   ??hal_car_stop?relay
    258                  }
    259                  SampleAppState = 1;
   \                     ??SampleApp_ControlCar_3:
   \   000036   90....       MOV     DPTR,#SampleAppState
   \   000039   7401         MOV     A,#0x1
   \   00003B   F0           MOVX    @DPTR,A
   \   00003C   8015         SJMP    ??CrossCallReturnLabel_5
    260                  
    261                }
    262                else if( SampleAppState == 1 )
   \                     ??SampleApp_ControlCar_0:
   \   00003E   6401         XRL     A,#0x1
   \   000040   7011         JNZ     ??CrossCallReturnLabel_5
    263                {
    264                  hal_car_stop();
   \   000042                ; Setup parameters for call to function hal_car_stop
   \   000042   12....       LCALL   ??hal_car_stop?relay
    265                  SampleAppState = 0;
   \   000045   90....       MOV     DPTR,#SampleAppState
   \   000048   E4           CLR     A
   \   000049   F0           MOVX    @DPTR,A
    266                  osal_start_timerEx( SampleApp_TaskID, SAMPLEAPP_CAR_EVT, 40 );
   \   00004A                ; Setup parameters for call to function osal_start_timerEx
   \   00004A   7C28         MOV     R4,#0x28
   \   00004C   FD           MOV     R5,A
   \   00004D   7A30         MOV     R2,#0x30
   \   00004F   FB           MOV     R3,A
   \   000050   12....       LCALL   ??Subroutine4_0 & 0xFFFF
    267                }
    268          }
   \                     ??CrossCallReturnLabel_5:
   \   000053                REQUIRE ?Subroutine0
   \   000053                ; // Fall through to label ?Subroutine0

   \                                 In  segment BANKED_CODE, align 1, keep-with-next
   \                     ?Subroutine0:
   \   000000   D083         POP     DPH
   \   000002   D082         POP     DPL
   \   000004   02....       LJMP    ?BRET

   \                                 In  segment BANKED_CODE, align 1, keep-with-next
   \                     ?Subroutine1:
   \   000000   7C05         MOV     R4,#0x5
   \   000002   7D00         MOV     R5,#0x0
   \   000004   7A30         MOV     R2,#0x30
   \   000006                REQUIRE ??Subroutine3_0
   \   000006                ; // Fall through to label ??Subroutine3_0

   \                                 In  segment BANKED_CODE, align 1, keep-with-next
   \                     ??Subroutine3_0:
   \   000000   7B00         MOV     R3,#0x0
   \   000002                REQUIRE ??Subroutine4_0
   \   000002                ; // Fall through to label ??Subroutine4_0

   \                                 In  segment BANKED_CODE, align 1, keep-with-next
   \                     ??Subroutine4_0:
   \   000000   90....       MOV     DPTR,#SampleApp_TaskID
   \   000003   E0           MOVX    A,@DPTR
   \   000004   F9           MOV     R1,A
   \   000005   12....       LCALL   ??osal_start_timerEx?relay
   \   000008   22           RET
    269          

   \                                 In  segment BANKED_CODE, align 1, keep-with-next
    270          void SampleApp_DetectBlack(void)
   \                     SampleApp_DetectBlack:
    271          {
   \   000000   C082         PUSH    DPL
   \   000002   C083         PUSH    DPH
   \   000004                ; Saved register size: 2
   \   000004                ; Auto size: 0
    272                if( Color_1 == 1 && Color_2 == 0 )
   \   000004   A280         MOV     C,0x80.0
   \   000006   5015         JNC     ??SampleApp_DetectBlack_0
   \   000008   A281         MOV     C,0x80.1
   \   00000A   4011         JC      ??SampleApp_DetectBlack_0
    273                {
    274                  SampleAppDirection = 1;
   \   00000C   90....       MOV     DPTR,#SampleAppDirection
   \   00000F   7401         MOV     A,#0x1
   \                     ??SampleApp_DetectBlack_1:
   \   000011   F0           MOVX    @DPTR,A
    275                  osal_start_timerEx( SampleApp_TaskID, SAMPLEAPP_COLOR_EVT, 100 );
   \   000012                ; Setup parameters for call to function osal_start_timerEx
   \   000012   7C64         MOV     R4,#0x64
   \   000014   7D00         MOV     R5,#0x0
   \   000016   7A40         MOV     R2,#0x40
   \   000018   12....       LCALL   ??Subroutine3_0 & 0xFFFF
    276                }
   \                     ??CrossCallReturnLabel_4:
   \   00001B   8035         SJMP    ??SampleApp_DetectBlack_2
    277                else if( Color_1 == 0 && Color_2 == 1 )   
   \                     ??SampleApp_DetectBlack_0:
   \   00001D   A280         MOV     C,0x80.0
   \   00001F   400B         JC      ??SampleApp_DetectBlack_3
   \   000021   A281         MOV     C,0x80.1
   \   000023   5007         JNC     ??SampleApp_DetectBlack_3
    278                {
    279                  SampleAppDirection = 2;
   \   000025   90....       MOV     DPTR,#SampleAppDirection
   \   000028   7402         MOV     A,#0x2
   \   00002A   80E5         SJMP    ??SampleApp_DetectBlack_1
    280                  osal_start_timerEx( SampleApp_TaskID, SAMPLEAPP_COLOR_EVT, 100 );
    281                }
    282                else if( Color_1 == 0 && Color_2 == 0 )
   \                     ??SampleApp_DetectBlack_3:
   \   00002C   A280         MOV     C,0x80.0
   \   00002E   4014         JC      ??SampleApp_DetectBlack_4
   \   000030   A281         MOV     C,0x80.1
   \   000032   4010         JC      ??SampleApp_DetectBlack_4
    283                {
    284                  SampleAppDirection = 0;
   \   000034   90....       MOV     DPTR,#SampleAppDirection
   \   000037   E4           CLR     A
   \   000038   F0           MOVX    @DPTR,A
    285                  osal_start_timerEx( SampleApp_TaskID, SAMPLEAPP_COLOR_EVT, 50 );
   \   000039                ; Setup parameters for call to function osal_start_timerEx
   \   000039   7C32         MOV     R4,#0x32
   \   00003B   FD           MOV     R5,A
   \   00003C   7A40         MOV     R2,#0x40
   \   00003E   FB           MOV     R3,A
   \   00003F   12....       LCALL   ??Subroutine4_0 & 0xFFFF
    286                }    
   \                     ??CrossCallReturnLabel_6:
   \   000042   800E         SJMP    ??SampleApp_DetectBlack_2
    287                else if( Color_1 == 1 && Color_2 == 1 )
   \                     ??SampleApp_DetectBlack_4:
   \   000044   A280         MOV     C,0x80.0
   \   000046   500A         JNC     ??SampleApp_DetectBlack_2
   \   000048   A281         MOV     C,0x80.1
   \   00004A   5006         JNC     ??SampleApp_DetectBlack_2
    288                {
    289                  SampleAppDirection = 3;
   \   00004C   90....       MOV     DPTR,#SampleAppDirection
   \   00004F   7403         MOV     A,#0x3
   \   000051   F0           MOVX    @DPTR,A
    290                }
    291          }
   \                     ??SampleApp_DetectBlack_2:
   \   000052   80..         SJMP    ?Subroutine0
   \   000054                REQUIRE _A_P0
    292          

   \                                 In  segment BANKED_CODE, align 1, keep-with-next
    293          static void SerialApp_CallBack( uint8 port, uint8 event )
   \                     SerialApp_CallBack:
    294          {
   \   000000   C082         PUSH    DPL
   \   000002   C083         PUSH    DPH
   \   000004                ; Saved register size: 2
   \   000004                ; Auto size: 3
   \   000004   74FD         MOV     A,#-0x3
   \   000006   12....       LCALL   ?ALLOC_XSTACK8
    295               unsigned char Uartbuf[3];
    296               HalUARTRead( 0, Uartbuf, 2 );
   \   000009                ; Setup parameters for call to function HalUARTRead
   \   000009   7C02         MOV     R4,#0x2
   \   00000B   7D00         MOV     R5,#0x0
   \   00000D   85..82       MOV     DPL,?XSP + 0
   \   000010   85..83       MOV     DPH,?XSP + 1
   \   000013   AA82         MOV     R2,DPL
   \   000015   AB83         MOV     R3,DPH
   \   000017   7900         MOV     R1,#0x0
   \   000019   12....       LCALL   ??HalUARTRead?relay
    297               SampleApp_SendPeriodicMessage( Uartbuf, 2 );
   \   00001C                ; Setup parameters for call to function SampleApp_SendPeriodicMessage
   \   00001C   7902         MOV     R1,#0x2
   \   00001E   85..82       MOV     DPL,?XSP + 0
   \   000021   85..83       MOV     DPH,?XSP + 1
   \   000024   AA82         MOV     R2,DPL
   \   000026   AB83         MOV     R3,DPH
   \   000028   12....       LCALL   ??SampleApp_SendPeriodicMessage?relay
    298          }
   \   00002B   7403         MOV     A,#0x3
   \   00002D   12....       LCALL   ?DEALLOC_XSTACK8
   \   000030   02....       LJMP    ?Subroutine0 & 0xFFFF

   \                                 In  segment BANK_RELAYS, align 1
   \                     ??SampleApp_Init?relay:
   \   000000   12....       LCALL   ?BDISPATCH
   \   000003   ......       DC24    SampleApp_Init

   \                                 In  segment BANK_RELAYS, align 1
   \                     ??SampleApp_ProcessEvent?relay:
   \   000000   12....       LCALL   ?BDISPATCH
   \   000003   ......       DC24    SampleApp_ProcessEvent

   \                                 In  segment BANK_RELAYS, align 1
   \                     ??SampleApp_SendPeriodicMessage?relay:
   \   000000   12....       LCALL   ?BDISPATCH
   \   000003   ......       DC24    SampleApp_SendPeriodicMessage

   \                                 In  segment BANK_RELAYS, align 1
   \                     ??SampleApp_MessageMSGCB?relay:
   \   000000   12....       LCALL   ?BDISPATCH
   \   000003   ......       DC24    SampleApp_MessageMSGCB

   \                                 In  segment BANK_RELAYS, align 1
   \                     ??SampleApp_ControlCar?relay:
   \   000000   12....       LCALL   ?BDISPATCH
   \   000003   ......       DC24    SampleApp_ControlCar

   \                                 In  segment BANK_RELAYS, align 1
   \                     ??SampleApp_DetectBlack?relay:
   \   000000   12....       LCALL   ?BDISPATCH
   \   000003   ......       DC24    SampleApp_DetectBlack

   \                                 In  segment BANK_RELAYS, align 1
   \                     ??SerialApp_CallBack?relay:
   \   000000   12....       LCALL   ?BDISPATCH
   \   000003   ......       DC24    SerialApp_CallBack

   Maximum stack usage in bytes:

     Function                       ISTACK PSTACK XSTACK
     --------                       ------ ------ ------
     SampleApp_ControlCar               2      0      0
       -> hal_car_turnleft              4      0      0
       -> osal_start_timerEx            4      0      0
       -> hal_car_turnright             4      0      0
       -> osal_start_timerEx            4      0      0
       -> hal_car_go                    4      0      0
       -> osal_start_timerEx            4      0      0
       -> hal_car_stop                  4      0      0
       -> hal_car_stop                  4      0      0
       -> osal_start_timerEx            4      0      0
     SampleApp_DetectBlack              2      0      0
       -> osal_start_timerEx            4      0      0
       -> osal_start_timerEx            4      0      0
       -> osal_start_timerEx            4      0      0
     SampleApp_Init                     0      0     38
       -> afRegister                    0      0     76
       -> RegisterForKeys               0      0     76
       -> HalUARTOpen                   0      0     76
       -> hal_car_configure             0      0     76
       -> hal_track_configure           0      0     76
     SampleApp_MessageMSGCB             0      0     29
       -> osal_memset                   0      0     28
       -> osal_memcpy                   0      0     34
       -> HalUARTWrite                  0      0     28
       -> HalLedBlink                   0      0     28
       -> HalLedBlink                   0      0     28
       -> HalLedBlink                   0      0     28
     SampleApp_ProcessEvent             0      0     12
       -> osal_msg_receive              0      0     24
       -> SampleApp_MessageMSGCB        0      0     24
       -> osal_msg_deallocate           0      0     24
       -> osal_msg_receive              0      0     24
     SampleApp_SendPeriodicMessage      0      0     22
       -> AF_DataRequest                0      0     38
       -> HalLedBlink                   0      0     20
       -> HalLedBlink                   0      0     20
     SerialApp_CallBack                 2      0      3
       -> HalUARTRead                   4      0      6
       -> SampleApp_SendPeriodicMessage
                                        4      0      6


   Segment part sizes:

     Function/Label                        Bytes
     --------------                        -----
     _A_P0                                    1
     SampleApp_ClusterList                    4
     SampleApp_SimpleDesc                    12
     SampleApp_epDesc                         6
     SampleApp_TaskID                         1
     SampleApp_TransID                        1
     SampleApp_P2P_DstAddr                   12
     SampleApp_Periodic_DstAddr              12
     SampleAppDirection                       1
     SampleAppState                           1
     SampleApp_Init                         207
     SampleApp_ProcessEvent                  97
     SampleApp_SendPeriodicMessage           96
     SampleApp_MessageMSGCB                 179
     ?Subroutine2                            12
     SampleApp_ControlCar                    83
     ?Subroutine0                             7
     ?Subroutine1                             6
     ??Subroutine3_0                          2
     ??Subroutine4_0                          9
     SampleApp_DetectBlack                   84
     SerialApp_CallBack                      51
     ??SampleApp_Init?relay                   6
     ??SampleApp_ProcessEvent?relay           6
     ??SampleApp_SendPeriodicMessage?relay    6
     ??SampleApp_MessageMSGCB?relay           6
     ??SampleApp_ControlCar?relay             6
     ??SampleApp_DetectBlack?relay            6
     ??SerialApp_CallBack?relay               6

 
 833 bytes in segment BANKED_CODE
  42 bytes in segment BANK_RELAYS
   1 byte  in segment SFR_AN
  16 bytes in segment XDATA_ROM_C
  34 bytes in segment XDATA_Z
 
 875 bytes of CODE  memory
  16 bytes of CONST memory
   0 bytes of DATA  memory (+ 1 byte shared)
  34 bytes of XDATA memory

Errors: none
Warnings: none
